; ModuleID = '/nethome/rsarkar30/examples/example-4/solution1/.autopilot/db/a.g.ld.5.gdce.bc'
source_filename = "llvm-link"
target datalayout = "e-m:e-i64:64-i128:128-i256:256-i512:512-i1024:1024-i2048:2048-i4096:4096-n8:16:32:64-S128-v16:16-v24:32-v32:32-v48:64-v96:128-v192:256-v256:256-v512:512-v1024:1024"
target triple = "fpga64-xilinx-none"

%"struct.std::array.2" = type { [9 x i32] }
%struct.node_t = type { i32, i32 }
%"struct.std::array.0" = type { [3 x i32] }
%struct.ap_fixed = type { %struct.ap_fixed_base }
%struct.ap_fixed_base = type { %struct.ssdm_int }
%struct.ssdm_int = type { i16 }

; Function Attrs: inaccessiblememonly nounwind
declare void @llvm.sideeffect() #0

; Function Attrs: noinline
define void @apatb_GIN_compute_graphs_ir(i32 %num_graphs, i32* %nums_of_nodes, i32* %nums_of_edges, i32* %reload_weights, [1 x %struct.ap_fixed]* %out, %"struct.std::array.2"* %node_feature_in, %struct.node_t* %edge_list_in, %"struct.std::array.0"* %edge_attr_in, [173 x [100 x %struct.ap_fixed]]* %node_embedding_weight_in, [5 x [13 x [100 x %struct.ap_fixed]]]* %edge_embedding_weight_in, [5 x [200 x [100 x %struct.ap_fixed]]]* %node_mlp_1_weights, [5 x [200 x %struct.ap_fixed]]* %node_mlp_1_bias, [5 x [100 x [200 x %struct.ap_fixed]]]* %node_mlp_2_weights, [5 x [100 x %struct.ap_fixed]]* %node_mlp_2_bias, [1 x [100 x %struct.ap_fixed]]* %graph_pred_weights_in, [1 x %struct.ap_fixed]* %graph_pred_bias_in) local_unnamed_addr #1 {
entry:
  %nums_of_nodes_copy = alloca [1 x i32], align 512
  %nums_of_edges_copy = alloca [1 x i32], align 512
  %reload_weights_copy = alloca [1 x i32], align 512
  %out_copy = alloca [1 x [1 x i16]], align 512
  %malloccall = tail call i8* @malloc(i64 18000)
  %node_feature_in_copy = bitcast i8* %malloccall to [500 x %"struct.std::array.2"]*
  %edge_list_in_copy = alloca [500 x %struct.node_t], align 512
  %malloccall1 = tail call i8* @malloc(i64 6000)
  %edge_attr_in_copy = bitcast i8* %malloccall1 to [500 x %"struct.std::array.0"]*
  %malloccall2 = tail call i8* @malloc(i64 34600)
  %node_embedding_weight_in_copy = bitcast i8* %malloccall2 to [1 x [173 x [100 x %struct.ap_fixed]]]*
  %malloccall3 = call i8* @malloc(i64 13000)
  %edge_embedding_weight_in_copy = bitcast i8* %malloccall3 to [1 x [5 x [13 x [100 x i16]]]]*
  %malloccall4 = call i8* @malloc(i64 200000)
  %node_mlp_1_weights_copy = bitcast i8* %malloccall4 to [1 x [5 x [200 x [100 x i16]]]]*
  %node_mlp_1_bias_copy = alloca [1 x [5 x [200 x i16]]], align 512
  %malloccall5 = call i8* @malloc(i64 200000)
  %node_mlp_2_weights_copy = bitcast i8* %malloccall5 to [1 x [5 x [100 x [200 x i16]]]]*
  %node_mlp_2_bias_copy = alloca [1 x [5 x [100 x i16]]], align 512
  %graph_pred_weights_in_copy = alloca [1 x [1 x [100 x i16]]], align 512
  %graph_pred_bias_in_copy = alloca [1 x [1 x i16]], align 512
  %0 = bitcast i32* %nums_of_nodes to [1 x i32]*
  %1 = bitcast i32* %nums_of_edges to [1 x i32]*
  %2 = bitcast i32* %reload_weights to [1 x i32]*
  %3 = bitcast [1 x %struct.ap_fixed]* %out to [1 x [1 x %struct.ap_fixed]]*
  %4 = bitcast %"struct.std::array.2"* %node_feature_in to [500 x %"struct.std::array.2"]*
  %5 = bitcast %struct.node_t* %edge_list_in to [500 x %struct.node_t]*
  %6 = bitcast %"struct.std::array.0"* %edge_attr_in to [500 x %"struct.std::array.0"]*
  %7 = bitcast [173 x [100 x %struct.ap_fixed]]* %node_embedding_weight_in to [1 x [173 x [100 x %struct.ap_fixed]]]*
  %8 = bitcast [5 x [13 x [100 x %struct.ap_fixed]]]* %edge_embedding_weight_in to [1 x [5 x [13 x [100 x %struct.ap_fixed]]]]*
  %9 = bitcast [5 x [200 x [100 x %struct.ap_fixed]]]* %node_mlp_1_weights to [1 x [5 x [200 x [100 x %struct.ap_fixed]]]]*
  %10 = bitcast [5 x [200 x %struct.ap_fixed]]* %node_mlp_1_bias to [1 x [5 x [200 x %struct.ap_fixed]]]*
  %11 = bitcast [5 x [100 x [200 x %struct.ap_fixed]]]* %node_mlp_2_weights to [1 x [5 x [100 x [200 x %struct.ap_fixed]]]]*
  %12 = bitcast [5 x [100 x %struct.ap_fixed]]* %node_mlp_2_bias to [1 x [5 x [100 x %struct.ap_fixed]]]*
  %13 = bitcast [1 x [100 x %struct.ap_fixed]]* %graph_pred_weights_in to [1 x [1 x [100 x %struct.ap_fixed]]]*
  %14 = bitcast [1 x %struct.ap_fixed]* %graph_pred_bias_in to [1 x [1 x %struct.ap_fixed]]*
  call fastcc void @copy_in([1 x i32]* %0, [1 x i32]* nonnull align 512 %nums_of_nodes_copy, [1 x i32]* %1, [1 x i32]* nonnull align 512 %nums_of_edges_copy, [1 x i32]* %2, [1 x i32]* nonnull align 512 %reload_weights_copy, [1 x [1 x %struct.ap_fixed]]* %3, [1 x [1 x i16]]* nonnull align 512 %out_copy, [500 x %"struct.std::array.2"]* %4, [500 x %"struct.std::array.2"]* %node_feature_in_copy, [500 x %struct.node_t]* %5, [500 x %struct.node_t]* nonnull align 512 %edge_list_in_copy, [500 x %"struct.std::array.0"]* %6, [500 x %"struct.std::array.0"]* %edge_attr_in_copy, [1 x [173 x [100 x %struct.ap_fixed]]]* %7, [1 x [173 x [100 x %struct.ap_fixed]]]* %node_embedding_weight_in_copy, [1 x [5 x [13 x [100 x %struct.ap_fixed]]]]* %8, [1 x [5 x [13 x [100 x i16]]]]* %edge_embedding_weight_in_copy, [1 x [5 x [200 x [100 x %struct.ap_fixed]]]]* %9, [1 x [5 x [200 x [100 x i16]]]]* %node_mlp_1_weights_copy, [1 x [5 x [200 x %struct.ap_fixed]]]* %10, [1 x [5 x [200 x i16]]]* nonnull align 512 %node_mlp_1_bias_copy, [1 x [5 x [100 x [200 x %struct.ap_fixed]]]]* %11, [1 x [5 x [100 x [200 x i16]]]]* %node_mlp_2_weights_copy, [1 x [5 x [100 x %struct.ap_fixed]]]* %12, [1 x [5 x [100 x i16]]]* nonnull align 512 %node_mlp_2_bias_copy, [1 x [1 x [100 x %struct.ap_fixed]]]* %13, [1 x [1 x [100 x i16]]]* nonnull align 512 %graph_pred_weights_in_copy, [1 x [1 x %struct.ap_fixed]]* %14, [1 x [1 x i16]]* nonnull align 512 %graph_pred_bias_in_copy)
  %15 = getelementptr inbounds [1 x i32], [1 x i32]* %nums_of_nodes_copy, i32 0, i32 0
  %16 = getelementptr inbounds [1 x i32], [1 x i32]* %nums_of_edges_copy, i32 0, i32 0
  %17 = getelementptr inbounds [1 x i32], [1 x i32]* %reload_weights_copy, i32 0, i32 0
  %18 = getelementptr [1 x [1 x i16]], [1 x [1 x i16]]* %out_copy, i64 0, i64 0
  %19 = getelementptr inbounds [500 x %"struct.std::array.2"], [500 x %"struct.std::array.2"]* %node_feature_in_copy, i32 0, i32 0
  %20 = getelementptr inbounds [500 x %struct.node_t], [500 x %struct.node_t]* %edge_list_in_copy, i32 0, i32 0
  %21 = getelementptr inbounds [500 x %"struct.std::array.0"], [500 x %"struct.std::array.0"]* %edge_attr_in_copy, i32 0, i32 0
  %22 = getelementptr inbounds [1 x [173 x [100 x %struct.ap_fixed]]], [1 x [173 x [100 x %struct.ap_fixed]]]* %node_embedding_weight_in_copy, i32 0, i32 0
  %23 = getelementptr [1 x [5 x [13 x [100 x i16]]]], [1 x [5 x [13 x [100 x i16]]]]* %edge_embedding_weight_in_copy, i32 0, i32 0
  %24 = getelementptr [1 x [5 x [200 x [100 x i16]]]], [1 x [5 x [200 x [100 x i16]]]]* %node_mlp_1_weights_copy, i32 0, i32 0
  %25 = getelementptr [1 x [5 x [200 x i16]]], [1 x [5 x [200 x i16]]]* %node_mlp_1_bias_copy, i32 0, i32 0
  %26 = getelementptr [1 x [5 x [100 x [200 x i16]]]], [1 x [5 x [100 x [200 x i16]]]]* %node_mlp_2_weights_copy, i32 0, i32 0
  %27 = getelementptr [1 x [5 x [100 x i16]]], [1 x [5 x [100 x i16]]]* %node_mlp_2_bias_copy, i32 0, i32 0
  %28 = getelementptr [1 x [1 x [100 x i16]]], [1 x [1 x [100 x i16]]]* %graph_pred_weights_in_copy, i32 0, i32 0
  %29 = getelementptr [1 x [1 x i16]], [1 x [1 x i16]]* %graph_pred_bias_in_copy, i32 0, i32 0
  %30 = getelementptr [1 x [1 x i16]], [1 x [1 x i16]]* %out_copy, i32 0, i32 0, i32 0, !dbg !5
  call void @llvm.sideeffect() #7 [ "xlx_array_partition"(i16* %30, i32 0, i32 1, i32 1) ], !dbg !8736
  call void @llvm.sideeffect() #7 [ "xlx_array_partition"(i16* %30, i32 0, i32 1, i32 1) ], !dbg !8737
  call void @apatb_GIN_compute_graphs_hw(i32 %num_graphs, i32* %15, i32* %16, i32* %17, [1 x i16]* %18, %"struct.std::array.2"* %19, %struct.node_t* %20, %"struct.std::array.0"* %21, [173 x [100 x %struct.ap_fixed]]* %22, [5 x [13 x [100 x i16]]]* %23, [5 x [200 x [100 x i16]]]* %24, [5 x [200 x i16]]* %25, [5 x [100 x [200 x i16]]]* %26, [5 x [100 x i16]]* %27, [1 x [100 x i16]]* %28, [1 x i16]* %29)
  call fastcc void @copy_out([1 x i32]* %0, [1 x i32]* nonnull align 512 %nums_of_nodes_copy, [1 x i32]* %1, [1 x i32]* nonnull align 512 %nums_of_edges_copy, [1 x i32]* %2, [1 x i32]* nonnull align 512 %reload_weights_copy, [1 x [1 x %struct.ap_fixed]]* %3, [1 x [1 x i16]]* nonnull align 512 %out_copy, [500 x %"struct.std::array.2"]* %4, [500 x %"struct.std::array.2"]* %node_feature_in_copy, [500 x %struct.node_t]* %5, [500 x %struct.node_t]* nonnull align 512 %edge_list_in_copy, [500 x %"struct.std::array.0"]* %6, [500 x %"struct.std::array.0"]* %edge_attr_in_copy, [1 x [173 x [100 x %struct.ap_fixed]]]* %7, [1 x [173 x [100 x %struct.ap_fixed]]]* %node_embedding_weight_in_copy, [1 x [5 x [13 x [100 x %struct.ap_fixed]]]]* %8, [1 x [5 x [13 x [100 x i16]]]]* %edge_embedding_weight_in_copy, [1 x [5 x [200 x [100 x %struct.ap_fixed]]]]* %9, [1 x [5 x [200 x [100 x i16]]]]* %node_mlp_1_weights_copy, [1 x [5 x [200 x %struct.ap_fixed]]]* %10, [1 x [5 x [200 x i16]]]* nonnull align 512 %node_mlp_1_bias_copy, [1 x [5 x [100 x [200 x %struct.ap_fixed]]]]* %11, [1 x [5 x [100 x [200 x i16]]]]* %node_mlp_2_weights_copy, [1 x [5 x [100 x %struct.ap_fixed]]]* %12, [1 x [5 x [100 x i16]]]* nonnull align 512 %node_mlp_2_bias_copy, [1 x [1 x [100 x %struct.ap_fixed]]]* %13, [1 x [1 x [100 x i16]]]* nonnull align 512 %graph_pred_weights_in_copy, [1 x [1 x %struct.ap_fixed]]* %14, [1 x [1 x i16]]* nonnull align 512 %graph_pred_bias_in_copy)
  tail call void @free(i8* %malloccall)
  tail call void @free(i8* %malloccall1)
  tail call void @free(i8* %malloccall2)
  call void @free(i8* %malloccall3)
  call void @free(i8* %malloccall4)
  call void @free(i8* %malloccall5)
  ret void
}

declare noalias i8* @malloc(i64) local_unnamed_addr

; Function Attrs: argmemonly noinline
define internal fastcc void @copy_in([1 x i32]* readonly, [1 x i32]* noalias align 512, [1 x i32]* readonly, [1 x i32]* noalias align 512, [1 x i32]* readonly, [1 x i32]* noalias align 512, [1 x [1 x %struct.ap_fixed]]* readonly, [1 x [1 x i16]]* noalias align 512 "fpga.caller.interfaces"="layout_transformed", [500 x %"struct.std::array.2"]* readonly, [500 x %"struct.std::array.2"]* noalias, [500 x %struct.node_t]* readonly, [500 x %struct.node_t]* noalias align 512, [500 x %"struct.std::array.0"]* readonly, [500 x %"struct.std::array.0"]* noalias, [1 x [173 x [100 x %struct.ap_fixed]]]* readonly, [1 x [173 x [100 x %struct.ap_fixed]]]* noalias, [1 x [5 x [13 x [100 x %struct.ap_fixed]]]]* readonly, [1 x [5 x [13 x [100 x i16]]]]* noalias, [1 x [5 x [200 x [100 x %struct.ap_fixed]]]]* readonly, [1 x [5 x [200 x [100 x i16]]]]* noalias, [1 x [5 x [200 x %struct.ap_fixed]]]* readonly, [1 x [5 x [200 x i16]]]* noalias align 512, [1 x [5 x [100 x [200 x %struct.ap_fixed]]]]* readonly, [1 x [5 x [100 x [200 x i16]]]]* noalias, [1 x [5 x [100 x %struct.ap_fixed]]]* readonly, [1 x [5 x [100 x i16]]]* noalias align 512, [1 x [1 x [100 x %struct.ap_fixed]]]* readonly, [1 x [1 x [100 x i16]]]* noalias align 512, [1 x [1 x %struct.ap_fixed]]* readonly, [1 x [1 x i16]]* noalias align 512) unnamed_addr #2 {
entry:
  call fastcc void @onebyonecpy_hls.p0a1i32([1 x i32]* align 512 %1, [1 x i32]* %0)
  call fastcc void @onebyonecpy_hls.p0a1i32([1 x i32]* align 512 %3, [1 x i32]* %2)
  call fastcc void @onebyonecpy_hls.p0a1i32([1 x i32]* align 512 %5, [1 x i32]* %4)
  call fastcc void @onebyonecpy_hls.p0a1a1struct.ap_fixed.226([1 x [1 x i16]]* align 512 %7, [1 x [1 x %struct.ap_fixed]]* %6)
  call fastcc void @"onebyonecpy_hls.p0a500struct.std::array.2"([500 x %"struct.std::array.2"]* %9, [500 x %"struct.std::array.2"]* %8)
  call fastcc void @onebyonecpy_hls.p0a500struct.node_t([500 x %struct.node_t]* align 512 %11, [500 x %struct.node_t]* %10)
  call fastcc void @"onebyonecpy_hls.p0a500struct.std::array.0"([500 x %"struct.std::array.0"]* %13, [500 x %"struct.std::array.0"]* %12)
  call fastcc void @onebyonecpy_hls.p0a1a173a100struct.ap_fixed([1 x [173 x [100 x %struct.ap_fixed]]]* %15, [1 x [173 x [100 x %struct.ap_fixed]]]* %14)
  call fastcc void @onebyonecpy_hls.p0a1a5a13a100struct.ap_fixed([1 x [5 x [13 x [100 x i16]]]]* %17, [1 x [5 x [13 x [100 x %struct.ap_fixed]]]]* %16)
  call fastcc void @onebyonecpy_hls.p0a1a5a200a100struct.ap_fixed.262([1 x [5 x [200 x [100 x i16]]]]* %19, [1 x [5 x [200 x [100 x %struct.ap_fixed]]]]* %18)
  call fastcc void @onebyonecpy_hls.p0a1a5a200struct.ap_fixed([1 x [5 x [200 x i16]]]* align 512 %21, [1 x [5 x [200 x %struct.ap_fixed]]]* %20)
  call fastcc void @onebyonecpy_hls.p0a1a5a100a200struct.ap_fixed.246([1 x [5 x [100 x [200 x i16]]]]* %23, [1 x [5 x [100 x [200 x %struct.ap_fixed]]]]* %22)
  call fastcc void @onebyonecpy_hls.p0a1a5a100struct.ap_fixed([1 x [5 x [100 x i16]]]* align 512 %25, [1 x [5 x [100 x %struct.ap_fixed]]]* %24)
  call fastcc void @onebyonecpy_hls.p0a1a1a100struct.ap_fixed.230([1 x [1 x [100 x i16]]]* align 512 %27, [1 x [1 x [100 x %struct.ap_fixed]]]* %26)
  call fastcc void @onebyonecpy_hls.p0a1a1struct.ap_fixed.226([1 x [1 x i16]]* align 512 %29, [1 x [1 x %struct.ap_fixed]]* %28)
  ret void
}

; Function Attrs: argmemonly noinline
define internal fastcc void @onebyonecpy_hls.p0a1i32([1 x i32]* noalias align 512, [1 x i32]* noalias readonly) unnamed_addr #3 {
entry:
  %2 = icmp eq [1 x i32]* %0, null
  %3 = icmp eq [1 x i32]* %1, null
  %4 = or i1 %2, %3
  br i1 %4, label %ret, label %for.loop

for.loop:                                         ; preds = %entry
  %5 = bitcast [1 x i32]* %0 to i8*
  %6 = bitcast [1 x i32]* %1 to i8*
  call void @llvm.memcpy.p0i8.p0i8.i64(i8* align 1 %5, i8* align 1 %6, i64 4, i1 false)
  br label %ret

ret:                                              ; preds = %for.loop, %entry
  ret void
}

; Function Attrs: argmemonly nounwind
declare void @llvm.memcpy.p0i8.p0i8.i64(i8* nocapture writeonly, i8* nocapture readonly, i64, i1) #4

; Function Attrs: argmemonly noinline
define internal fastcc void @"onebyonecpy_hls.p0a500struct.std::array.2"([500 x %"struct.std::array.2"]* noalias, [500 x %"struct.std::array.2"]* noalias readonly) unnamed_addr #3 {
entry:
  %2 = icmp eq [500 x %"struct.std::array.2"]* %0, null
  %3 = icmp eq [500 x %"struct.std::array.2"]* %1, null
  %4 = or i1 %2, %3
  br i1 %4, label %ret, label %copy

copy:                                             ; preds = %entry
  br label %for.loop

for.loop:                                         ; preds = %for.loop.split, %copy
  %for.loop.idx14 = phi i64 [ 0, %copy ], [ %for.loop.idx.next, %for.loop.split ]
  br label %for.loop2

for.loop2:                                        ; preds = %for.loop2, %for.loop
  %for.loop.idx313 = phi i64 [ 0, %for.loop ], [ %for.loop.idx3.next, %for.loop2 ]
  %dst.addr59.gep11 = getelementptr [500 x %"struct.std::array.2"], [500 x %"struct.std::array.2"]* %0, i64 0, i64 %for.loop.idx14, i32 0, i64 %for.loop.idx313
  %5 = bitcast i32* %dst.addr59.gep11 to i8*
  %src.addr610.gep12 = getelementptr [500 x %"struct.std::array.2"], [500 x %"struct.std::array.2"]* %1, i64 0, i64 %for.loop.idx14, i32 0, i64 %for.loop.idx313
  %6 = bitcast i32* %src.addr610.gep12 to i8*
  call void @llvm.memcpy.p0i8.p0i8.i64(i8* align 1 %5, i8* align 1 %6, i64 4, i1 false)
  %for.loop.idx3.next = add nuw nsw i64 %for.loop.idx313, 1
  %exitcond = icmp ne i64 %for.loop.idx3.next, 9
  br i1 %exitcond, label %for.loop2, label %for.loop.split

for.loop.split:                                   ; preds = %for.loop2
  %for.loop.idx.next = add nuw nsw i64 %for.loop.idx14, 1
  %exitcond15 = icmp ne i64 %for.loop.idx.next, 500
  br i1 %exitcond15, label %for.loop, label %ret

ret:                                              ; preds = %for.loop.split, %entry
  ret void
}

; Function Attrs: argmemonly noinline
define internal fastcc void @onebyonecpy_hls.p0a500struct.node_t([500 x %struct.node_t]* noalias align 512, [500 x %struct.node_t]* noalias readonly) unnamed_addr #3 {
entry:
  %2 = icmp eq [500 x %struct.node_t]* %0, null
  %3 = icmp eq [500 x %struct.node_t]* %1, null
  %4 = or i1 %2, %3
  br i1 %4, label %ret, label %copy

copy:                                             ; preds = %entry
  br label %for.loop

for.loop:                                         ; preds = %for.loop, %copy
  %for.loop.idx9 = phi i64 [ 0, %copy ], [ %for.loop.idx.next, %for.loop ]
  %dst.addr.02.gep5 = getelementptr [500 x %struct.node_t], [500 x %struct.node_t]* %0, i64 0, i64 %for.loop.idx9, i32 0
  %5 = bitcast i32* %dst.addr.02.gep5 to i8*
  %src.addr.01.gep6 = getelementptr [500 x %struct.node_t], [500 x %struct.node_t]* %1, i64 0, i64 %for.loop.idx9, i32 0
  %6 = bitcast i32* %src.addr.01.gep6 to i8*
  call void @llvm.memcpy.p0i8.p0i8.i64(i8* align 1 %5, i8* align 1 %6, i64 4, i1 false)
  %dst.addr.14.gep7 = getelementptr [500 x %struct.node_t], [500 x %struct.node_t]* %0, i64 0, i64 %for.loop.idx9, i32 1
  %7 = bitcast i32* %dst.addr.14.gep7 to i8*
  %src.addr.13.gep8 = getelementptr [500 x %struct.node_t], [500 x %struct.node_t]* %1, i64 0, i64 %for.loop.idx9, i32 1
  %8 = bitcast i32* %src.addr.13.gep8 to i8*
  call void @llvm.memcpy.p0i8.p0i8.i64(i8* align 1 %7, i8* align 1 %8, i64 4, i1 false)
  %for.loop.idx.next = add nuw nsw i64 %for.loop.idx9, 1
  %exitcond = icmp ne i64 %for.loop.idx.next, 500
  br i1 %exitcond, label %for.loop, label %ret

ret:                                              ; preds = %for.loop, %entry
  ret void
}

; Function Attrs: argmemonly noinline
define internal fastcc void @"onebyonecpy_hls.p0a500struct.std::array.0"([500 x %"struct.std::array.0"]* noalias, [500 x %"struct.std::array.0"]* noalias readonly) unnamed_addr #3 {
entry:
  %2 = icmp eq [500 x %"struct.std::array.0"]* %0, null
  %3 = icmp eq [500 x %"struct.std::array.0"]* %1, null
  %4 = or i1 %2, %3
  br i1 %4, label %ret, label %copy

copy:                                             ; preds = %entry
  br label %for.loop

for.loop:                                         ; preds = %for.loop.split, %copy
  %for.loop.idx14 = phi i64 [ 0, %copy ], [ %for.loop.idx.next, %for.loop.split ]
  br label %for.loop2

for.loop2:                                        ; preds = %for.loop2, %for.loop
  %for.loop.idx313 = phi i64 [ 0, %for.loop ], [ %for.loop.idx3.next, %for.loop2 ]
  %dst.addr59.gep11 = getelementptr [500 x %"struct.std::array.0"], [500 x %"struct.std::array.0"]* %0, i64 0, i64 %for.loop.idx14, i32 0, i64 %for.loop.idx313
  %5 = bitcast i32* %dst.addr59.gep11 to i8*
  %src.addr610.gep12 = getelementptr [500 x %"struct.std::array.0"], [500 x %"struct.std::array.0"]* %1, i64 0, i64 %for.loop.idx14, i32 0, i64 %for.loop.idx313
  %6 = bitcast i32* %src.addr610.gep12 to i8*
  call void @llvm.memcpy.p0i8.p0i8.i64(i8* align 1 %5, i8* align 1 %6, i64 4, i1 false)
  %for.loop.idx3.next = add nuw nsw i64 %for.loop.idx313, 1
  %exitcond = icmp ne i64 %for.loop.idx3.next, 3
  br i1 %exitcond, label %for.loop2, label %for.loop.split

for.loop.split:                                   ; preds = %for.loop2
  %for.loop.idx.next = add nuw nsw i64 %for.loop.idx14, 1
  %exitcond15 = icmp ne i64 %for.loop.idx.next, 500
  br i1 %exitcond15, label %for.loop, label %ret

ret:                                              ; preds = %for.loop.split, %entry
  ret void
}

; Function Attrs: argmemonly noinline
define internal fastcc void @onebyonecpy_hls.p0a1a173a100struct.ap_fixed([1 x [173 x [100 x %struct.ap_fixed]]]* noalias, [1 x [173 x [100 x %struct.ap_fixed]]]* noalias readonly) unnamed_addr #3 {
entry:
  %2 = icmp eq [1 x [173 x [100 x %struct.ap_fixed]]]* %0, null
  %3 = icmp eq [1 x [173 x [100 x %struct.ap_fixed]]]* %1, null
  %4 = or i1 %2, %3
  br i1 %4, label %ret, label %for.loop

for.loop:                                         ; preds = %entry
  br label %for.loop2

for.loop2:                                        ; preds = %for.loop2.split, %for.loop
  %for.loop.idx326 = phi i64 [ 0, %for.loop ], [ %for.loop.idx3.next, %for.loop2.split ]
  br label %for.loop8

for.loop8:                                        ; preds = %for.loop8, %for.loop2
  %for.loop.idx925 = phi i64 [ 0, %for.loop2 ], [ %for.loop.idx9.next, %for.loop8 ]
  %dst.addr11.0.0.022.gep23 = getelementptr [1 x [173 x [100 x %struct.ap_fixed]]], [1 x [173 x [100 x %struct.ap_fixed]]]* %0, i64 0, i64 0, i64 %for.loop.idx326, i64 %for.loop.idx925, i32 0, i32 0, i32 0
  %5 = bitcast i16* %dst.addr11.0.0.022.gep23 to i8*
  %src.addr12.0.0.021.gep24 = getelementptr [1 x [173 x [100 x %struct.ap_fixed]]], [1 x [173 x [100 x %struct.ap_fixed]]]* %1, i64 0, i64 0, i64 %for.loop.idx326, i64 %for.loop.idx925, i32 0, i32 0, i32 0
  %6 = bitcast i16* %src.addr12.0.0.021.gep24 to i8*
  call void @llvm.memcpy.p0i8.p0i8.i64(i8* align 1 %5, i8* align 1 %6, i64 2, i1 false)
  %for.loop.idx9.next = add nuw nsw i64 %for.loop.idx925, 1
  %exitcond = icmp ne i64 %for.loop.idx9.next, 100
  br i1 %exitcond, label %for.loop8, label %for.loop2.split

for.loop2.split:                                  ; preds = %for.loop8
  %for.loop.idx3.next = add nuw nsw i64 %for.loop.idx326, 1
  %exitcond28 = icmp ne i64 %for.loop.idx3.next, 173
  br i1 %exitcond28, label %for.loop2, label %ret

ret:                                              ; preds = %for.loop2.split, %entry
  ret void
}

; Function Attrs: argmemonly noinline
define internal fastcc void @onebyonecpy_hls.p0a1a5a13a100struct.ap_fixed([1 x [5 x [13 x [100 x i16]]]]* noalias, [1 x [5 x [13 x [100 x %struct.ap_fixed]]]]* noalias readonly) unnamed_addr #3 {
entry:
  %2 = icmp eq [1 x [5 x [13 x [100 x i16]]]]* %0, null
  %3 = icmp eq [1 x [5 x [13 x [100 x %struct.ap_fixed]]]]* %1, null
  %4 = or i1 %2, %3
  br i1 %4, label %ret, label %for.loop

for.loop:                                         ; preds = %entry
  br label %for.loop2

for.loop2:                                        ; preds = %for.loop2.split, %for.loop
  %for.loop.idx335 = phi i64 [ 0, %for.loop ], [ %for.loop.idx3.next, %for.loop2.split ]
  br label %for.loop8

for.loop8:                                        ; preds = %for.loop8.split, %for.loop2
  %for.loop.idx934 = phi i64 [ 0, %for.loop2 ], [ %for.loop.idx9.next, %for.loop8.split ]
  br label %for.loop14

for.loop14:                                       ; preds = %for.loop14, %for.loop8
  %for.loop.idx1533 = phi i64 [ 0, %for.loop8 ], [ %for.loop.idx15.next, %for.loop14 ]
  %5 = getelementptr [1 x [5 x [13 x [100 x i16]]]], [1 x [5 x [13 x [100 x i16]]]]* %0, i64 0, i64 0, i64 %for.loop.idx335, i64 %for.loop.idx934, i64 %for.loop.idx1533
  %src.addr18.0.0.029.gep32 = getelementptr [1 x [5 x [13 x [100 x %struct.ap_fixed]]]], [1 x [5 x [13 x [100 x %struct.ap_fixed]]]]* %1, i64 0, i64 0, i64 %for.loop.idx335, i64 %for.loop.idx934, i64 %for.loop.idx1533, i32 0, i32 0, i32 0
  %6 = load i16, i16* %src.addr18.0.0.029.gep32, align 2
  store i16 %6, i16* %5, align 2
  %for.loop.idx15.next = add nuw nsw i64 %for.loop.idx1533, 1
  %exitcond = icmp ne i64 %for.loop.idx15.next, 100
  br i1 %exitcond, label %for.loop14, label %for.loop8.split

for.loop8.split:                                  ; preds = %for.loop14
  %for.loop.idx9.next = add nuw nsw i64 %for.loop.idx934, 1
  %exitcond37 = icmp ne i64 %for.loop.idx9.next, 13
  br i1 %exitcond37, label %for.loop8, label %for.loop2.split

for.loop2.split:                                  ; preds = %for.loop8.split
  %for.loop.idx3.next = add nuw nsw i64 %for.loop.idx335, 1
  %exitcond38 = icmp ne i64 %for.loop.idx3.next, 5
  br i1 %exitcond38, label %for.loop2, label %ret

ret:                                              ; preds = %for.loop2.split, %entry
  ret void
}

; Function Attrs: argmemonly noinline
define internal fastcc void @onebyonecpy_hls.p0a1a5a200a100struct.ap_fixed([1 x [5 x [200 x [100 x %struct.ap_fixed]]]]* noalias, [1 x [5 x [200 x [100 x i16]]]]* noalias readonly) unnamed_addr #3 {
entry:
  %2 = icmp eq [1 x [5 x [200 x [100 x %struct.ap_fixed]]]]* %0, null
  %3 = icmp eq [1 x [5 x [200 x [100 x i16]]]]* %1, null
  %4 = or i1 %2, %3
  br i1 %4, label %ret, label %for.loop

for.loop:                                         ; preds = %entry
  br label %for.loop2

for.loop2:                                        ; preds = %for.loop2.split, %for.loop
  %for.loop.idx335 = phi i64 [ 0, %for.loop ], [ %for.loop.idx3.next, %for.loop2.split ]
  br label %for.loop8

for.loop8:                                        ; preds = %for.loop8.split, %for.loop2
  %for.loop.idx934 = phi i64 [ 0, %for.loop2 ], [ %for.loop.idx9.next, %for.loop8.split ]
  br label %for.loop14

for.loop14:                                       ; preds = %for.loop14, %for.loop8
  %for.loop.idx1533 = phi i64 [ 0, %for.loop8 ], [ %for.loop.idx15.next, %for.loop14 ]
  %dst.addr17.0.0.030.gep31 = getelementptr [1 x [5 x [200 x [100 x %struct.ap_fixed]]]], [1 x [5 x [200 x [100 x %struct.ap_fixed]]]]* %0, i64 0, i64 0, i64 %for.loop.idx335, i64 %for.loop.idx934, i64 %for.loop.idx1533, i32 0, i32 0, i32 0
  %5 = getelementptr [1 x [5 x [200 x [100 x i16]]]], [1 x [5 x [200 x [100 x i16]]]]* %1, i64 0, i64 0, i64 %for.loop.idx335, i64 %for.loop.idx934, i64 %for.loop.idx1533
  %6 = load i16, i16* %5, align 2
  store i16 %6, i16* %dst.addr17.0.0.030.gep31, align 2
  %for.loop.idx15.next = add nuw nsw i64 %for.loop.idx1533, 1
  %exitcond = icmp ne i64 %for.loop.idx15.next, 100
  br i1 %exitcond, label %for.loop14, label %for.loop8.split

for.loop8.split:                                  ; preds = %for.loop14
  %for.loop.idx9.next = add nuw nsw i64 %for.loop.idx934, 1
  %exitcond37 = icmp ne i64 %for.loop.idx9.next, 200
  br i1 %exitcond37, label %for.loop8, label %for.loop2.split

for.loop2.split:                                  ; preds = %for.loop8.split
  %for.loop.idx3.next = add nuw nsw i64 %for.loop.idx335, 1
  %exitcond38 = icmp ne i64 %for.loop.idx3.next, 5
  br i1 %exitcond38, label %for.loop2, label %ret

ret:                                              ; preds = %for.loop2.split, %entry
  ret void
}

; Function Attrs: argmemonly noinline
define internal fastcc void @onebyonecpy_hls.p0a1a5a200struct.ap_fixed([1 x [5 x [200 x i16]]]* noalias align 512, [1 x [5 x [200 x %struct.ap_fixed]]]* noalias readonly) unnamed_addr #3 {
entry:
  %2 = icmp eq [1 x [5 x [200 x i16]]]* %0, null
  %3 = icmp eq [1 x [5 x [200 x %struct.ap_fixed]]]* %1, null
  %4 = or i1 %2, %3
  br i1 %4, label %ret, label %for.loop

for.loop:                                         ; preds = %entry
  br label %for.loop2

for.loop2:                                        ; preds = %for.loop2.split, %for.loop
  %for.loop.idx326 = phi i64 [ 0, %for.loop ], [ %for.loop.idx3.next, %for.loop2.split ]
  br label %for.loop8

for.loop8:                                        ; preds = %for.loop8, %for.loop2
  %for.loop.idx925 = phi i64 [ 0, %for.loop2 ], [ %for.loop.idx9.next, %for.loop8 ]
  %5 = getelementptr [1 x [5 x [200 x i16]]], [1 x [5 x [200 x i16]]]* %0, i64 0, i64 0, i64 %for.loop.idx326, i64 %for.loop.idx925
  %src.addr12.0.0.021.gep24 = getelementptr [1 x [5 x [200 x %struct.ap_fixed]]], [1 x [5 x [200 x %struct.ap_fixed]]]* %1, i64 0, i64 0, i64 %for.loop.idx326, i64 %for.loop.idx925, i32 0, i32 0, i32 0
  %6 = load i16, i16* %src.addr12.0.0.021.gep24, align 2
  store i16 %6, i16* %5, align 2
  %for.loop.idx9.next = add nuw nsw i64 %for.loop.idx925, 1
  %exitcond = icmp ne i64 %for.loop.idx9.next, 200
  br i1 %exitcond, label %for.loop8, label %for.loop2.split

for.loop2.split:                                  ; preds = %for.loop8
  %for.loop.idx3.next = add nuw nsw i64 %for.loop.idx326, 1
  %exitcond28 = icmp ne i64 %for.loop.idx3.next, 5
  br i1 %exitcond28, label %for.loop2, label %ret

ret:                                              ; preds = %for.loop2.split, %entry
  ret void
}

; Function Attrs: argmemonly noinline
define internal fastcc void @onebyonecpy_hls.p0a1a5a100a200struct.ap_fixed([1 x [5 x [100 x [200 x %struct.ap_fixed]]]]* noalias, [1 x [5 x [100 x [200 x i16]]]]* noalias readonly) unnamed_addr #3 {
entry:
  %2 = icmp eq [1 x [5 x [100 x [200 x %struct.ap_fixed]]]]* %0, null
  %3 = icmp eq [1 x [5 x [100 x [200 x i16]]]]* %1, null
  %4 = or i1 %2, %3
  br i1 %4, label %ret, label %for.loop

for.loop:                                         ; preds = %entry
  br label %for.loop2

for.loop2:                                        ; preds = %for.loop2.split, %for.loop
  %for.loop.idx335 = phi i64 [ 0, %for.loop ], [ %for.loop.idx3.next, %for.loop2.split ]
  br label %for.loop8

for.loop8:                                        ; preds = %for.loop8.split, %for.loop2
  %for.loop.idx934 = phi i64 [ 0, %for.loop2 ], [ %for.loop.idx9.next, %for.loop8.split ]
  br label %for.loop14

for.loop14:                                       ; preds = %for.loop14, %for.loop8
  %for.loop.idx1533 = phi i64 [ 0, %for.loop8 ], [ %for.loop.idx15.next, %for.loop14 ]
  %dst.addr17.0.0.030.gep31 = getelementptr [1 x [5 x [100 x [200 x %struct.ap_fixed]]]], [1 x [5 x [100 x [200 x %struct.ap_fixed]]]]* %0, i64 0, i64 0, i64 %for.loop.idx335, i64 %for.loop.idx934, i64 %for.loop.idx1533, i32 0, i32 0, i32 0
  %5 = getelementptr [1 x [5 x [100 x [200 x i16]]]], [1 x [5 x [100 x [200 x i16]]]]* %1, i64 0, i64 0, i64 %for.loop.idx335, i64 %for.loop.idx934, i64 %for.loop.idx1533
  %6 = load i16, i16* %5, align 2
  store i16 %6, i16* %dst.addr17.0.0.030.gep31, align 2
  %for.loop.idx15.next = add nuw nsw i64 %for.loop.idx1533, 1
  %exitcond = icmp ne i64 %for.loop.idx15.next, 200
  br i1 %exitcond, label %for.loop14, label %for.loop8.split

for.loop8.split:                                  ; preds = %for.loop14
  %for.loop.idx9.next = add nuw nsw i64 %for.loop.idx934, 1
  %exitcond37 = icmp ne i64 %for.loop.idx9.next, 100
  br i1 %exitcond37, label %for.loop8, label %for.loop2.split

for.loop2.split:                                  ; preds = %for.loop8.split
  %for.loop.idx3.next = add nuw nsw i64 %for.loop.idx335, 1
  %exitcond38 = icmp ne i64 %for.loop.idx3.next, 5
  br i1 %exitcond38, label %for.loop2, label %ret

ret:                                              ; preds = %for.loop2.split, %entry
  ret void
}

; Function Attrs: argmemonly noinline
define internal fastcc void @onebyonecpy_hls.p0a1a5a100struct.ap_fixed([1 x [5 x [100 x i16]]]* noalias align 512, [1 x [5 x [100 x %struct.ap_fixed]]]* noalias readonly) unnamed_addr #3 {
entry:
  %2 = icmp eq [1 x [5 x [100 x i16]]]* %0, null
  %3 = icmp eq [1 x [5 x [100 x %struct.ap_fixed]]]* %1, null
  %4 = or i1 %2, %3
  br i1 %4, label %ret, label %for.loop

for.loop:                                         ; preds = %entry
  br label %for.loop2

for.loop2:                                        ; preds = %for.loop2.split, %for.loop
  %for.loop.idx326 = phi i64 [ 0, %for.loop ], [ %for.loop.idx3.next, %for.loop2.split ]
  br label %for.loop8

for.loop8:                                        ; preds = %for.loop8, %for.loop2
  %for.loop.idx925 = phi i64 [ 0, %for.loop2 ], [ %for.loop.idx9.next, %for.loop8 ]
  %5 = getelementptr [1 x [5 x [100 x i16]]], [1 x [5 x [100 x i16]]]* %0, i64 0, i64 0, i64 %for.loop.idx326, i64 %for.loop.idx925
  %src.addr12.0.0.021.gep24 = getelementptr [1 x [5 x [100 x %struct.ap_fixed]]], [1 x [5 x [100 x %struct.ap_fixed]]]* %1, i64 0, i64 0, i64 %for.loop.idx326, i64 %for.loop.idx925, i32 0, i32 0, i32 0
  %6 = load i16, i16* %src.addr12.0.0.021.gep24, align 2
  store i16 %6, i16* %5, align 2
  %for.loop.idx9.next = add nuw nsw i64 %for.loop.idx925, 1
  %exitcond = icmp ne i64 %for.loop.idx9.next, 100
  br i1 %exitcond, label %for.loop8, label %for.loop2.split

for.loop2.split:                                  ; preds = %for.loop8
  %for.loop.idx3.next = add nuw nsw i64 %for.loop.idx326, 1
  %exitcond28 = icmp ne i64 %for.loop.idx3.next, 5
  br i1 %exitcond28, label %for.loop2, label %ret

ret:                                              ; preds = %for.loop2.split, %entry
  ret void
}

; Function Attrs: argmemonly noinline
define internal fastcc void @onebyonecpy_hls.p0a1a1a100struct.ap_fixed([1 x [1 x [100 x %struct.ap_fixed]]]* noalias, [1 x [1 x [100 x i16]]]* noalias readonly align 512) unnamed_addr #3 {
entry:
  %2 = icmp eq [1 x [1 x [100 x %struct.ap_fixed]]]* %0, null
  %3 = icmp eq [1 x [1 x [100 x i16]]]* %1, null
  %4 = or i1 %2, %3
  br i1 %4, label %ret, label %for.loop2

for.loop2:                                        ; preds = %entry
  br label %for.loop8

for.loop8:                                        ; preds = %for.loop8, %for.loop2
  %for.loop.idx925 = phi i64 [ 0, %for.loop2 ], [ %for.loop.idx9.next, %for.loop8 ]
  %dst.addr11.0.0.022.gep23 = getelementptr [1 x [1 x [100 x %struct.ap_fixed]]], [1 x [1 x [100 x %struct.ap_fixed]]]* %0, i64 0, i64 0, i64 0, i64 %for.loop.idx925, i32 0, i32 0, i32 0
  %5 = getelementptr [1 x [1 x [100 x i16]]], [1 x [1 x [100 x i16]]]* %1, i64 0, i64 0, i64 0, i64 %for.loop.idx925
  %6 = load i16, i16* %5, align 2
  store i16 %6, i16* %dst.addr11.0.0.022.gep23, align 2
  %for.loop.idx9.next = add nuw nsw i64 %for.loop.idx925, 1
  %exitcond = icmp ne i64 %for.loop.idx9.next, 100
  br i1 %exitcond, label %for.loop8, label %ret

ret:                                              ; preds = %for.loop8, %entry
  ret void
}

; Function Attrs: argmemonly noinline
define internal fastcc void @copy_out([1 x i32]*, [1 x i32]* noalias readonly align 512, [1 x i32]*, [1 x i32]* noalias readonly align 512, [1 x i32]*, [1 x i32]* noalias readonly align 512, [1 x [1 x %struct.ap_fixed]]*, [1 x [1 x i16]]* noalias readonly align 512 "fpga.caller.interfaces"="layout_transformed", [500 x %"struct.std::array.2"]*, [500 x %"struct.std::array.2"]* noalias readonly, [500 x %struct.node_t]*, [500 x %struct.node_t]* noalias readonly align 512, [500 x %"struct.std::array.0"]*, [500 x %"struct.std::array.0"]* noalias readonly, [1 x [173 x [100 x %struct.ap_fixed]]]*, [1 x [173 x [100 x %struct.ap_fixed]]]* noalias readonly, [1 x [5 x [13 x [100 x %struct.ap_fixed]]]]*, [1 x [5 x [13 x [100 x i16]]]]* noalias readonly, [1 x [5 x [200 x [100 x %struct.ap_fixed]]]]*, [1 x [5 x [200 x [100 x i16]]]]* noalias readonly, [1 x [5 x [200 x %struct.ap_fixed]]]*, [1 x [5 x [200 x i16]]]* noalias readonly align 512, [1 x [5 x [100 x [200 x %struct.ap_fixed]]]]*, [1 x [5 x [100 x [200 x i16]]]]* noalias readonly, [1 x [5 x [100 x %struct.ap_fixed]]]*, [1 x [5 x [100 x i16]]]* noalias readonly align 512, [1 x [1 x [100 x %struct.ap_fixed]]]*, [1 x [1 x [100 x i16]]]* noalias readonly align 512, [1 x [1 x %struct.ap_fixed]]*, [1 x [1 x i16]]* noalias readonly align 512) unnamed_addr #5 {
entry:
  call fastcc void @onebyonecpy_hls.p0a1i32([1 x i32]* %0, [1 x i32]* align 512 %1)
  call fastcc void @onebyonecpy_hls.p0a1i32([1 x i32]* %2, [1 x i32]* align 512 %3)
  call fastcc void @onebyonecpy_hls.p0a1i32([1 x i32]* %4, [1 x i32]* align 512 %5)
  call fastcc void @onebyonecpy_hls.p0a1a1struct.ap_fixed([1 x [1 x %struct.ap_fixed]]* %6, [1 x [1 x i16]]* align 512 %7)
  call fastcc void @"onebyonecpy_hls.p0a500struct.std::array.2"([500 x %"struct.std::array.2"]* %8, [500 x %"struct.std::array.2"]* %9)
  call fastcc void @onebyonecpy_hls.p0a500struct.node_t([500 x %struct.node_t]* %10, [500 x %struct.node_t]* align 512 %11)
  call fastcc void @"onebyonecpy_hls.p0a500struct.std::array.0"([500 x %"struct.std::array.0"]* %12, [500 x %"struct.std::array.0"]* %13)
  call fastcc void @onebyonecpy_hls.p0a1a173a100struct.ap_fixed([1 x [173 x [100 x %struct.ap_fixed]]]* %14, [1 x [173 x [100 x %struct.ap_fixed]]]* %15)
  call fastcc void @onebyonecpy_hls.p0a1a5a13a100struct.ap_fixed.270([1 x [5 x [13 x [100 x %struct.ap_fixed]]]]* %16, [1 x [5 x [13 x [100 x i16]]]]* %17)
  call fastcc void @onebyonecpy_hls.p0a1a5a200a100struct.ap_fixed([1 x [5 x [200 x [100 x %struct.ap_fixed]]]]* %18, [1 x [5 x [200 x [100 x i16]]]]* %19)
  call fastcc void @onebyonecpy_hls.p0a1a5a200struct.ap_fixed.254([1 x [5 x [200 x %struct.ap_fixed]]]* %20, [1 x [5 x [200 x i16]]]* align 512 %21)
  call fastcc void @onebyonecpy_hls.p0a1a5a100a200struct.ap_fixed([1 x [5 x [100 x [200 x %struct.ap_fixed]]]]* %22, [1 x [5 x [100 x [200 x i16]]]]* %23)
  call fastcc void @onebyonecpy_hls.p0a1a5a100struct.ap_fixed.238([1 x [5 x [100 x %struct.ap_fixed]]]* %24, [1 x [5 x [100 x i16]]]* align 512 %25)
  call fastcc void @onebyonecpy_hls.p0a1a1a100struct.ap_fixed([1 x [1 x [100 x %struct.ap_fixed]]]* %26, [1 x [1 x [100 x i16]]]* align 512 %27)
  call fastcc void @onebyonecpy_hls.p0a1a1struct.ap_fixed([1 x [1 x %struct.ap_fixed]]* %28, [1 x [1 x i16]]* align 512 %29)
  ret void
}

declare void @free(i8*) local_unnamed_addr

; Function Attrs: argmemonly noinline
define internal fastcc void @onebyonecpy_hls.p0a1a1struct.ap_fixed([1 x [1 x %struct.ap_fixed]]* noalias "fpga.caller.interfaces"="layout_transformed", [1 x [1 x i16]]* noalias readonly align 512 "fpga.caller.interfaces"="layout_transformed") unnamed_addr #3 {
entry:
  %2 = icmp eq [1 x [1 x %struct.ap_fixed]]* %0, null
  %3 = icmp eq [1 x [1 x i16]]* %1, null
  %4 = or i1 %2, %3
  br i1 %4, label %ret, label %for.loop2

for.loop2:                                        ; preds = %entry
  %5 = getelementptr [1 x [1 x i16]], [1 x [1 x i16]]* %1, i64 0, i32 0, i32 0
  %6 = getelementptr inbounds [1 x [1 x %struct.ap_fixed]], [1 x [1 x %struct.ap_fixed]]* %0, i64 0, i32 0, i32 0, i32 0, i32 0, i32 0
  %7 = load i16, i16* %5, align 512
  store i16 %7, i16* %6, align 2
  br label %ret

ret:                                              ; preds = %for.loop2, %entry
  ret void
}

; Function Attrs: argmemonly noinline
define internal fastcc void @onebyonecpy_hls.p0a1a1struct.ap_fixed.226([1 x [1 x i16]]* noalias align 512 "fpga.caller.interfaces"="layout_transformed", [1 x [1 x %struct.ap_fixed]]* noalias readonly "fpga.caller.interfaces"="layout_transformed") unnamed_addr #3 {
entry:
  %2 = icmp eq [1 x [1 x i16]]* %0, null
  %3 = icmp eq [1 x [1 x %struct.ap_fixed]]* %1, null
  %4 = or i1 %2, %3
  br i1 %4, label %ret, label %for.loop2

for.loop2:                                        ; preds = %entry
  %5 = getelementptr [1 x [1 x i16]], [1 x [1 x i16]]* %0, i64 0, i32 0, i32 0
  %6 = getelementptr inbounds [1 x [1 x %struct.ap_fixed]], [1 x [1 x %struct.ap_fixed]]* %1, i64 0, i32 0, i32 0, i32 0, i32 0, i32 0
  %7 = load i16, i16* %6, align 2
  store i16 %7, i16* %5, align 512
  br label %ret

ret:                                              ; preds = %for.loop2, %entry
  ret void
}

; Function Attrs: argmemonly noinline
define internal fastcc void @onebyonecpy_hls.p0a1a1a100struct.ap_fixed.230([1 x [1 x [100 x i16]]]* noalias align 512, [1 x [1 x [100 x %struct.ap_fixed]]]* noalias readonly) unnamed_addr #3 {
entry:
  %2 = icmp eq [1 x [1 x [100 x i16]]]* %0, null
  %3 = icmp eq [1 x [1 x [100 x %struct.ap_fixed]]]* %1, null
  %4 = or i1 %2, %3
  br i1 %4, label %ret, label %for.loop2

for.loop2:                                        ; preds = %entry
  br label %for.loop8

for.loop8:                                        ; preds = %for.loop8, %for.loop2
  %for.loop.idx925 = phi i64 [ 0, %for.loop2 ], [ %for.loop.idx9.next, %for.loop8 ]
  %5 = getelementptr [1 x [1 x [100 x i16]]], [1 x [1 x [100 x i16]]]* %0, i64 0, i64 0, i64 0, i64 %for.loop.idx925
  %src.addr12.0.0.021.gep24 = getelementptr [1 x [1 x [100 x %struct.ap_fixed]]], [1 x [1 x [100 x %struct.ap_fixed]]]* %1, i64 0, i64 0, i64 0, i64 %for.loop.idx925, i32 0, i32 0, i32 0
  %6 = load i16, i16* %src.addr12.0.0.021.gep24, align 2
  store i16 %6, i16* %5, align 2
  %for.loop.idx9.next = add nuw nsw i64 %for.loop.idx925, 1
  %exitcond = icmp ne i64 %for.loop.idx9.next, 100
  br i1 %exitcond, label %for.loop8, label %ret

ret:                                              ; preds = %for.loop8, %entry
  ret void
}

; Function Attrs: argmemonly noinline
define internal fastcc void @onebyonecpy_hls.p0a1a5a100struct.ap_fixed.238([1 x [5 x [100 x %struct.ap_fixed]]]* noalias, [1 x [5 x [100 x i16]]]* noalias readonly align 512) unnamed_addr #3 {
entry:
  %2 = icmp eq [1 x [5 x [100 x %struct.ap_fixed]]]* %0, null
  %3 = icmp eq [1 x [5 x [100 x i16]]]* %1, null
  %4 = or i1 %2, %3
  br i1 %4, label %ret, label %for.loop

for.loop:                                         ; preds = %entry
  br label %for.loop2

for.loop2:                                        ; preds = %for.loop2.split, %for.loop
  %for.loop.idx326 = phi i64 [ 0, %for.loop ], [ %for.loop.idx3.next, %for.loop2.split ]
  br label %for.loop8

for.loop8:                                        ; preds = %for.loop8, %for.loop2
  %for.loop.idx925 = phi i64 [ 0, %for.loop2 ], [ %for.loop.idx9.next, %for.loop8 ]
  %dst.addr11.0.0.022.gep23 = getelementptr [1 x [5 x [100 x %struct.ap_fixed]]], [1 x [5 x [100 x %struct.ap_fixed]]]* %0, i64 0, i64 0, i64 %for.loop.idx326, i64 %for.loop.idx925, i32 0, i32 0, i32 0
  %5 = getelementptr [1 x [5 x [100 x i16]]], [1 x [5 x [100 x i16]]]* %1, i64 0, i64 0, i64 %for.loop.idx326, i64 %for.loop.idx925
  %6 = load i16, i16* %5, align 2
  store i16 %6, i16* %dst.addr11.0.0.022.gep23, align 2
  %for.loop.idx9.next = add nuw nsw i64 %for.loop.idx925, 1
  %exitcond = icmp ne i64 %for.loop.idx9.next, 100
  br i1 %exitcond, label %for.loop8, label %for.loop2.split

for.loop2.split:                                  ; preds = %for.loop8
  %for.loop.idx3.next = add nuw nsw i64 %for.loop.idx326, 1
  %exitcond28 = icmp ne i64 %for.loop.idx3.next, 5
  br i1 %exitcond28, label %for.loop2, label %ret

ret:                                              ; preds = %for.loop2.split, %entry
  ret void
}

; Function Attrs: argmemonly noinline
define internal fastcc void @onebyonecpy_hls.p0a1a5a100a200struct.ap_fixed.246([1 x [5 x [100 x [200 x i16]]]]* noalias, [1 x [5 x [100 x [200 x %struct.ap_fixed]]]]* noalias readonly) unnamed_addr #3 {
entry:
  %2 = icmp eq [1 x [5 x [100 x [200 x i16]]]]* %0, null
  %3 = icmp eq [1 x [5 x [100 x [200 x %struct.ap_fixed]]]]* %1, null
  %4 = or i1 %2, %3
  br i1 %4, label %ret, label %for.loop

for.loop:                                         ; preds = %entry
  br label %for.loop2

for.loop2:                                        ; preds = %for.loop2.split, %for.loop
  %for.loop.idx335 = phi i64 [ 0, %for.loop ], [ %for.loop.idx3.next, %for.loop2.split ]
  br label %for.loop8

for.loop8:                                        ; preds = %for.loop8.split, %for.loop2
  %for.loop.idx934 = phi i64 [ 0, %for.loop2 ], [ %for.loop.idx9.next, %for.loop8.split ]
  br label %for.loop14

for.loop14:                                       ; preds = %for.loop14, %for.loop8
  %for.loop.idx1533 = phi i64 [ 0, %for.loop8 ], [ %for.loop.idx15.next, %for.loop14 ]
  %5 = getelementptr [1 x [5 x [100 x [200 x i16]]]], [1 x [5 x [100 x [200 x i16]]]]* %0, i64 0, i64 0, i64 %for.loop.idx335, i64 %for.loop.idx934, i64 %for.loop.idx1533
  %src.addr18.0.0.029.gep32 = getelementptr [1 x [5 x [100 x [200 x %struct.ap_fixed]]]], [1 x [5 x [100 x [200 x %struct.ap_fixed]]]]* %1, i64 0, i64 0, i64 %for.loop.idx335, i64 %for.loop.idx934, i64 %for.loop.idx1533, i32 0, i32 0, i32 0
  %6 = load i16, i16* %src.addr18.0.0.029.gep32, align 2
  store i16 %6, i16* %5, align 2
  %for.loop.idx15.next = add nuw nsw i64 %for.loop.idx1533, 1
  %exitcond = icmp ne i64 %for.loop.idx15.next, 200
  br i1 %exitcond, label %for.loop14, label %for.loop8.split

for.loop8.split:                                  ; preds = %for.loop14
  %for.loop.idx9.next = add nuw nsw i64 %for.loop.idx934, 1
  %exitcond37 = icmp ne i64 %for.loop.idx9.next, 100
  br i1 %exitcond37, label %for.loop8, label %for.loop2.split

for.loop2.split:                                  ; preds = %for.loop8.split
  %for.loop.idx3.next = add nuw nsw i64 %for.loop.idx335, 1
  %exitcond38 = icmp ne i64 %for.loop.idx3.next, 5
  br i1 %exitcond38, label %for.loop2, label %ret

ret:                                              ; preds = %for.loop2.split, %entry
  ret void
}

; Function Attrs: argmemonly noinline
define internal fastcc void @onebyonecpy_hls.p0a1a5a200struct.ap_fixed.254([1 x [5 x [200 x %struct.ap_fixed]]]* noalias, [1 x [5 x [200 x i16]]]* noalias readonly align 512) unnamed_addr #3 {
entry:
  %2 = icmp eq [1 x [5 x [200 x %struct.ap_fixed]]]* %0, null
  %3 = icmp eq [1 x [5 x [200 x i16]]]* %1, null
  %4 = or i1 %2, %3
  br i1 %4, label %ret, label %for.loop

for.loop:                                         ; preds = %entry
  br label %for.loop2

for.loop2:                                        ; preds = %for.loop2.split, %for.loop
  %for.loop.idx326 = phi i64 [ 0, %for.loop ], [ %for.loop.idx3.next, %for.loop2.split ]
  br label %for.loop8

for.loop8:                                        ; preds = %for.loop8, %for.loop2
  %for.loop.idx925 = phi i64 [ 0, %for.loop2 ], [ %for.loop.idx9.next, %for.loop8 ]
  %dst.addr11.0.0.022.gep23 = getelementptr [1 x [5 x [200 x %struct.ap_fixed]]], [1 x [5 x [200 x %struct.ap_fixed]]]* %0, i64 0, i64 0, i64 %for.loop.idx326, i64 %for.loop.idx925, i32 0, i32 0, i32 0
  %5 = getelementptr [1 x [5 x [200 x i16]]], [1 x [5 x [200 x i16]]]* %1, i64 0, i64 0, i64 %for.loop.idx326, i64 %for.loop.idx925
  %6 = load i16, i16* %5, align 2
  store i16 %6, i16* %dst.addr11.0.0.022.gep23, align 2
  %for.loop.idx9.next = add nuw nsw i64 %for.loop.idx925, 1
  %exitcond = icmp ne i64 %for.loop.idx9.next, 200
  br i1 %exitcond, label %for.loop8, label %for.loop2.split

for.loop2.split:                                  ; preds = %for.loop8
  %for.loop.idx3.next = add nuw nsw i64 %for.loop.idx326, 1
  %exitcond28 = icmp ne i64 %for.loop.idx3.next, 5
  br i1 %exitcond28, label %for.loop2, label %ret

ret:                                              ; preds = %for.loop2.split, %entry
  ret void
}

; Function Attrs: argmemonly noinline
define internal fastcc void @onebyonecpy_hls.p0a1a5a200a100struct.ap_fixed.262([1 x [5 x [200 x [100 x i16]]]]* noalias, [1 x [5 x [200 x [100 x %struct.ap_fixed]]]]* noalias readonly) unnamed_addr #3 {
entry:
  %2 = icmp eq [1 x [5 x [200 x [100 x i16]]]]* %0, null
  %3 = icmp eq [1 x [5 x [200 x [100 x %struct.ap_fixed]]]]* %1, null
  %4 = or i1 %2, %3
  br i1 %4, label %ret, label %for.loop

for.loop:                                         ; preds = %entry
  br label %for.loop2

for.loop2:                                        ; preds = %for.loop2.split, %for.loop
  %for.loop.idx335 = phi i64 [ 0, %for.loop ], [ %for.loop.idx3.next, %for.loop2.split ]
  br label %for.loop8

for.loop8:                                        ; preds = %for.loop8.split, %for.loop2
  %for.loop.idx934 = phi i64 [ 0, %for.loop2 ], [ %for.loop.idx9.next, %for.loop8.split ]
  br label %for.loop14

for.loop14:                                       ; preds = %for.loop14, %for.loop8
  %for.loop.idx1533 = phi i64 [ 0, %for.loop8 ], [ %for.loop.idx15.next, %for.loop14 ]
  %5 = getelementptr [1 x [5 x [200 x [100 x i16]]]], [1 x [5 x [200 x [100 x i16]]]]* %0, i64 0, i64 0, i64 %for.loop.idx335, i64 %for.loop.idx934, i64 %for.loop.idx1533
  %src.addr18.0.0.029.gep32 = getelementptr [1 x [5 x [200 x [100 x %struct.ap_fixed]]]], [1 x [5 x [200 x [100 x %struct.ap_fixed]]]]* %1, i64 0, i64 0, i64 %for.loop.idx335, i64 %for.loop.idx934, i64 %for.loop.idx1533, i32 0, i32 0, i32 0
  %6 = load i16, i16* %src.addr18.0.0.029.gep32, align 2
  store i16 %6, i16* %5, align 2
  %for.loop.idx15.next = add nuw nsw i64 %for.loop.idx1533, 1
  %exitcond = icmp ne i64 %for.loop.idx15.next, 100
  br i1 %exitcond, label %for.loop14, label %for.loop8.split

for.loop8.split:                                  ; preds = %for.loop14
  %for.loop.idx9.next = add nuw nsw i64 %for.loop.idx934, 1
  %exitcond37 = icmp ne i64 %for.loop.idx9.next, 200
  br i1 %exitcond37, label %for.loop8, label %for.loop2.split

for.loop2.split:                                  ; preds = %for.loop8.split
  %for.loop.idx3.next = add nuw nsw i64 %for.loop.idx335, 1
  %exitcond38 = icmp ne i64 %for.loop.idx3.next, 5
  br i1 %exitcond38, label %for.loop2, label %ret

ret:                                              ; preds = %for.loop2.split, %entry
  ret void
}

; Function Attrs: argmemonly noinline
define internal fastcc void @onebyonecpy_hls.p0a1a5a13a100struct.ap_fixed.270([1 x [5 x [13 x [100 x %struct.ap_fixed]]]]* noalias, [1 x [5 x [13 x [100 x i16]]]]* noalias readonly) unnamed_addr #3 {
entry:
  %2 = icmp eq [1 x [5 x [13 x [100 x %struct.ap_fixed]]]]* %0, null
  %3 = icmp eq [1 x [5 x [13 x [100 x i16]]]]* %1, null
  %4 = or i1 %2, %3
  br i1 %4, label %ret, label %for.loop

for.loop:                                         ; preds = %entry
  br label %for.loop2

for.loop2:                                        ; preds = %for.loop2.split, %for.loop
  %for.loop.idx335 = phi i64 [ 0, %for.loop ], [ %for.loop.idx3.next, %for.loop2.split ]
  br label %for.loop8

for.loop8:                                        ; preds = %for.loop8.split, %for.loop2
  %for.loop.idx934 = phi i64 [ 0, %for.loop2 ], [ %for.loop.idx9.next, %for.loop8.split ]
  br label %for.loop14

for.loop14:                                       ; preds = %for.loop14, %for.loop8
  %for.loop.idx1533 = phi i64 [ 0, %for.loop8 ], [ %for.loop.idx15.next, %for.loop14 ]
  %dst.addr17.0.0.030.gep31 = getelementptr [1 x [5 x [13 x [100 x %struct.ap_fixed]]]], [1 x [5 x [13 x [100 x %struct.ap_fixed]]]]* %0, i64 0, i64 0, i64 %for.loop.idx335, i64 %for.loop.idx934, i64 %for.loop.idx1533, i32 0, i32 0, i32 0
  %5 = getelementptr [1 x [5 x [13 x [100 x i16]]]], [1 x [5 x [13 x [100 x i16]]]]* %1, i64 0, i64 0, i64 %for.loop.idx335, i64 %for.loop.idx934, i64 %for.loop.idx1533
  %6 = load i16, i16* %5, align 2
  store i16 %6, i16* %dst.addr17.0.0.030.gep31, align 2
  %for.loop.idx15.next = add nuw nsw i64 %for.loop.idx1533, 1
  %exitcond = icmp ne i64 %for.loop.idx15.next, 100
  br i1 %exitcond, label %for.loop14, label %for.loop8.split

for.loop8.split:                                  ; preds = %for.loop14
  %for.loop.idx9.next = add nuw nsw i64 %for.loop.idx934, 1
  %exitcond37 = icmp ne i64 %for.loop.idx9.next, 13
  br i1 %exitcond37, label %for.loop8, label %for.loop2.split

for.loop2.split:                                  ; preds = %for.loop8.split
  %for.loop.idx3.next = add nuw nsw i64 %for.loop.idx335, 1
  %exitcond38 = icmp ne i64 %for.loop.idx3.next, 5
  br i1 %exitcond38, label %for.loop2, label %ret

ret:                                              ; preds = %for.loop2.split, %entry
  ret void
}

declare void @apatb_GIN_compute_graphs_hw(i32, i32*, i32*, i32*, [1 x i16]*, %"struct.std::array.2"*, %struct.node_t*, %"struct.std::array.0"*, [173 x [100 x %struct.ap_fixed]]*, [5 x [13 x [100 x i16]]]*, [5 x [200 x [100 x i16]]]*, [5 x [200 x i16]]*, [5 x [100 x [200 x i16]]]*, [5 x [100 x i16]]*, [1 x [100 x i16]]*, [1 x i16]*)

define void @GIN_compute_graphs_hw_stub_wrapper(i32, i32*, i32*, i32*, [1 x i16]*, %"struct.std::array.2"*, %struct.node_t*, %"struct.std::array.0"*, [173 x [100 x %struct.ap_fixed]]*, [5 x [13 x [100 x i16]]]*, [5 x [200 x [100 x i16]]]*, [5 x [200 x i16]]*, [5 x [100 x [200 x i16]]]*, [5 x [100 x i16]]*, [1 x [100 x i16]]*, [1 x i16]*) #6 {
entry:
  %16 = alloca [1 x [1 x %struct.ap_fixed]]
  %malloccall = tail call i8* @malloc(i64 13000)
  %17 = bitcast i8* %malloccall to [1 x [5 x [13 x [100 x %struct.ap_fixed]]]]*
  %malloccall1 = tail call i8* @malloc(i64 200000)
  %18 = bitcast i8* %malloccall1 to [1 x [5 x [200 x [100 x %struct.ap_fixed]]]]*
  %19 = alloca [1 x [5 x [200 x %struct.ap_fixed]]]
  %malloccall2 = tail call i8* @malloc(i64 200000)
  %20 = bitcast i8* %malloccall2 to [1 x [5 x [100 x [200 x %struct.ap_fixed]]]]*
  %21 = alloca [1 x [5 x [100 x %struct.ap_fixed]]]
  %22 = alloca [1 x [1 x [100 x %struct.ap_fixed]]]
  %23 = alloca [1 x [1 x %struct.ap_fixed]]
  %24 = bitcast i32* %1 to [1 x i32]*
  %25 = bitcast i32* %2 to [1 x i32]*
  %26 = bitcast i32* %3 to [1 x i32]*
  %27 = bitcast [1 x i16]* %4 to [1 x [1 x i16]]*
  %28 = bitcast %"struct.std::array.2"* %5 to [500 x %"struct.std::array.2"]*
  %29 = bitcast %struct.node_t* %6 to [500 x %struct.node_t]*
  %30 = bitcast %"struct.std::array.0"* %7 to [500 x %"struct.std::array.0"]*
  %31 = bitcast [173 x [100 x %struct.ap_fixed]]* %8 to [1 x [173 x [100 x %struct.ap_fixed]]]*
  %32 = bitcast [5 x [13 x [100 x i16]]]* %9 to [1 x [5 x [13 x [100 x i16]]]]*
  %33 = bitcast [5 x [200 x [100 x i16]]]* %10 to [1 x [5 x [200 x [100 x i16]]]]*
  %34 = bitcast [5 x [200 x i16]]* %11 to [1 x [5 x [200 x i16]]]*
  %35 = bitcast [5 x [100 x [200 x i16]]]* %12 to [1 x [5 x [100 x [200 x i16]]]]*
  %36 = bitcast [5 x [100 x i16]]* %13 to [1 x [5 x [100 x i16]]]*
  %37 = bitcast [1 x [100 x i16]]* %14 to [1 x [1 x [100 x i16]]]*
  %38 = bitcast [1 x i16]* %15 to [1 x [1 x i16]]*
  call void @copy_out([1 x i32]* null, [1 x i32]* %24, [1 x i32]* null, [1 x i32]* %25, [1 x i32]* null, [1 x i32]* %26, [1 x [1 x %struct.ap_fixed]]* %16, [1 x [1 x i16]]* %27, [500 x %"struct.std::array.2"]* null, [500 x %"struct.std::array.2"]* %28, [500 x %struct.node_t]* null, [500 x %struct.node_t]* %29, [500 x %"struct.std::array.0"]* null, [500 x %"struct.std::array.0"]* %30, [1 x [173 x [100 x %struct.ap_fixed]]]* null, [1 x [173 x [100 x %struct.ap_fixed]]]* %31, [1 x [5 x [13 x [100 x %struct.ap_fixed]]]]* %17, [1 x [5 x [13 x [100 x i16]]]]* %32, [1 x [5 x [200 x [100 x %struct.ap_fixed]]]]* %18, [1 x [5 x [200 x [100 x i16]]]]* %33, [1 x [5 x [200 x %struct.ap_fixed]]]* %19, [1 x [5 x [200 x i16]]]* %34, [1 x [5 x [100 x [200 x %struct.ap_fixed]]]]* %20, [1 x [5 x [100 x [200 x i16]]]]* %35, [1 x [5 x [100 x %struct.ap_fixed]]]* %21, [1 x [5 x [100 x i16]]]* %36, [1 x [1 x [100 x %struct.ap_fixed]]]* %22, [1 x [1 x [100 x i16]]]* %37, [1 x [1 x %struct.ap_fixed]]* %23, [1 x [1 x i16]]* %38)
  %39 = bitcast [1 x i32]* %24 to i32*
  %40 = bitcast [1 x i32]* %25 to i32*
  %41 = bitcast [1 x i32]* %26 to i32*
  %42 = bitcast [1 x [1 x %struct.ap_fixed]]* %16 to [1 x %struct.ap_fixed]*
  %43 = bitcast [500 x %"struct.std::array.2"]* %28 to %"struct.std::array.2"*
  %44 = bitcast [500 x %struct.node_t]* %29 to %struct.node_t*
  %45 = bitcast [500 x %"struct.std::array.0"]* %30 to %"struct.std::array.0"*
  %46 = bitcast [1 x [173 x [100 x %struct.ap_fixed]]]* %31 to [173 x [100 x %struct.ap_fixed]]*
  %47 = bitcast [1 x [5 x [13 x [100 x %struct.ap_fixed]]]]* %17 to [5 x [13 x [100 x %struct.ap_fixed]]]*
  %48 = bitcast [1 x [5 x [200 x [100 x %struct.ap_fixed]]]]* %18 to [5 x [200 x [100 x %struct.ap_fixed]]]*
  %49 = bitcast [1 x [5 x [200 x %struct.ap_fixed]]]* %19 to [5 x [200 x %struct.ap_fixed]]*
  %50 = bitcast [1 x [5 x [100 x [200 x %struct.ap_fixed]]]]* %20 to [5 x [100 x [200 x %struct.ap_fixed]]]*
  %51 = bitcast [1 x [5 x [100 x %struct.ap_fixed]]]* %21 to [5 x [100 x %struct.ap_fixed]]*
  %52 = bitcast [1 x [1 x [100 x %struct.ap_fixed]]]* %22 to [1 x [100 x %struct.ap_fixed]]*
  %53 = bitcast [1 x [1 x %struct.ap_fixed]]* %23 to [1 x %struct.ap_fixed]*
  call void @GIN_compute_graphs_hw_stub(i32 %0, i32* %39, i32* %40, i32* %41, [1 x %struct.ap_fixed]* %42, %"struct.std::array.2"* %43, %struct.node_t* %44, %"struct.std::array.0"* %45, [173 x [100 x %struct.ap_fixed]]* %46, [5 x [13 x [100 x %struct.ap_fixed]]]* %47, [5 x [200 x [100 x %struct.ap_fixed]]]* %48, [5 x [200 x %struct.ap_fixed]]* %49, [5 x [100 x [200 x %struct.ap_fixed]]]* %50, [5 x [100 x %struct.ap_fixed]]* %51, [1 x [100 x %struct.ap_fixed]]* %52, [1 x %struct.ap_fixed]* %53)
  call void @copy_in([1 x i32]* null, [1 x i32]* %24, [1 x i32]* null, [1 x i32]* %25, [1 x i32]* null, [1 x i32]* %26, [1 x [1 x %struct.ap_fixed]]* %16, [1 x [1 x i16]]* %27, [500 x %"struct.std::array.2"]* null, [500 x %"struct.std::array.2"]* %28, [500 x %struct.node_t]* null, [500 x %struct.node_t]* %29, [500 x %"struct.std::array.0"]* null, [500 x %"struct.std::array.0"]* %30, [1 x [173 x [100 x %struct.ap_fixed]]]* null, [1 x [173 x [100 x %struct.ap_fixed]]]* %31, [1 x [5 x [13 x [100 x %struct.ap_fixed]]]]* %17, [1 x [5 x [13 x [100 x i16]]]]* %32, [1 x [5 x [200 x [100 x %struct.ap_fixed]]]]* %18, [1 x [5 x [200 x [100 x i16]]]]* %33, [1 x [5 x [200 x %struct.ap_fixed]]]* %19, [1 x [5 x [200 x i16]]]* %34, [1 x [5 x [100 x [200 x %struct.ap_fixed]]]]* %20, [1 x [5 x [100 x [200 x i16]]]]* %35, [1 x [5 x [100 x %struct.ap_fixed]]]* %21, [1 x [5 x [100 x i16]]]* %36, [1 x [1 x [100 x %struct.ap_fixed]]]* %22, [1 x [1 x [100 x i16]]]* %37, [1 x [1 x %struct.ap_fixed]]* %23, [1 x [1 x i16]]* %38)
  ret void
}

declare void @GIN_compute_graphs_hw_stub(i32, i32*, i32*, i32*, [1 x %struct.ap_fixed]*, %"struct.std::array.2"*, %struct.node_t*, %"struct.std::array.0"*, [173 x [100 x %struct.ap_fixed]]*, [5 x [13 x [100 x %struct.ap_fixed]]]*, [5 x [200 x [100 x %struct.ap_fixed]]]*, [5 x [200 x %struct.ap_fixed]]*, [5 x [100 x [200 x %struct.ap_fixed]]]*, [5 x [100 x %struct.ap_fixed]]*, [1 x [100 x %struct.ap_fixed]]*, [1 x %struct.ap_fixed]*)

attributes #0 = { inaccessiblememonly nounwind }
attributes #1 = { noinline "fpga.wrapper.func"="wrapper" }
attributes #2 = { argmemonly noinline "fpga.wrapper.func"="copyin" }
attributes #3 = { argmemonly noinline "fpga.wrapper.func"="onebyonecpy_hls" }
attributes #4 = { argmemonly nounwind }
attributes #5 = { argmemonly noinline "fpga.wrapper.func"="copyout" }
attributes #6 = { "fpga.wrapper.func"="stub" }
attributes #7 = { inaccessiblememonly nounwind "xlx.port.bitwidth"="16" }

!llvm.dbg.cu = !{}
!llvm.ident = !{!0, !0, !0, !0, !0, !0, !0, !0, !0, !0, !0, !0, !0, !0, !0, !0, !0, !0, !0, !0, !0, !0, !0, !0, !0, !0, !0, !0, !0, !0, !0, !0, !0, !0, !0, !0, !0, !0, !0, !0, !0, !0, !0, !0, !0, !0, !0, !0, !0, !0, !0, !0, !0, !0, !0, !0, !0, !0, !0, !0, !0, !0, !0, !0, !0, !0, !0, !0, !0, !0, !0, !0, !0, !0, !0, !0, !0, !0, !0, !0, !0, !0, !0, !0, !0, !0, !0, !0, !0, !0, !0, !0, !0, !0, !0, !0, !0, !0, !0, !0, !0, !0, !0, !0, !0, !0, !0, !0, !0, !0, !0, !0, !0, !0, !0, !0, !0, !0, !0, !0, !0, !0, !0, !0, !0, !0, !0, !0, !0, !0, !0, !0, !0, !0, !0, !0, !0, !0, !0, !0, !0, !0, !0, !0, !0, !0, !0, !0, !0, !0, !0, !0, !0, !0, !0, !0, !0, !0, !0, !0, !0, !0, !0, !0, !0, !0, !0, !0, !0, !0, !0, !0, !0, !0, !0, !0, !0, !0, !0, !0, !0, !0, !0, !0, !0, !0, !0, !0, !0, !0, !0, !0, !0, !0, !0, !0, !0, !0, !0, !0, !0, !0, !0, !0, !0, !0, !0, !0, !0, !0, !0, !0, !0, !0, !0, !0, !0, !0, !0, !0, !0, !0, !0, !0, !0, !0, !0, !0, !0, !0, !0, !0, !0, !0, !0, !0, !0, !0, !0, !0, !0, !0, !0, !0, !0, !0, !0, !0, !0, !0, !0, !0, !0, !0, !0, !0, !0, !0, !0, !0, !0, !0, !0, !0, !0, !0, !0, !0, !0, !0, !0, !0, !0, !0, !0, !0, !0, !0, !0, !0, !0, !0, !0, !0, !0, !0, !0, !0, !0, !0, !0, !0, !0, !0, !0, !0, !0, !0, !0, !0, !0, !0, !0, !0, !0, !0, !0, !0, !0, !0, !0, !0, !0, !0, !0, !0, !0, !0, !0, !0, !0, !0, !0, !0, !0, !0, !0, !0, !0, !0, !0, !0, !0, !0, !0, !0, !0, !0, !0, !0, !0, !0, !0, !0, !0, !0, !0, !0, !0, !0, !0, !0, !0, !0, !0, !0, !0, !0, !0, !0, !0, !0, !0, !0, !0, !0, !0, !0, !0, !0, !0, !0, !0, !0, !0, !0, !0, !0, !0, !0, !0, !0, !0, !0, !0, !0, !0, !0, !0, !0, !0, !0, !0, !0, !0, !0, !0, !0, !0, !0, !0, !0, !0, !0, !0, !0, !0, !0, !0, !0, !0, !0, !0, !0, !0, !0, !0, !0, !0, !0, !0, !0, !0, !0, !0, !0, !0, !0, !0, !0, !0, !0, !0, !0, !0, !0, !0, !0, !0, !0, !0, !0, !0, !0, !0, !0, !0, !0, !0, !0, !0, !0, !0, !0, !0, !0, !0, !0, !0, !0, !0, !0, !0, !0, !0, !0, !0, !0, !0, !0, !0, !0, !0, !0, !0, !0, !0, !0, !0, !0, !0, !0, !0, !0, !0, !0, !0, !0, !0, !0, !0, !0, !0, !0, !0, !0, !0, !0, !0, !0, !0, !0, !0, !0, !0, !0, !0, !0, !0, !0, !0, !0, !0, !0, !0, !0, !0, !0, !0, !0, !0, !0, !0, !0, !0, !0, !0, !0, !0, !0, !0, !0, !0, !0, !0, !0, !0, !0, !0, !0, !0, !0, !0, !0, !0, !0, !0, !0, !0, !0, !0, !0, !0, !0, !0, !0, !0, !0, !0, !0, !0, !0, !0, !0, !0, !0, !0, !0, !0, !0, !0, !0, !0, !0, !0, !0, !0, !0, !0, !0, !0, !0, !0, !0, !0, !0, !0, !0, !0, !0, !0, !0}
!llvm.module.flags = !{!1, !2, !3}
!blackbox_cfg = !{!4}

!0 = !{!"clang version 7.0.0 "}
!1 = !{i32 2, !"Dwarf Version", i32 4}
!2 = !{i32 2, !"Debug Info Version", i32 3}
!3 = !{i32 1, !"wchar_size", i32 4}
!4 = !{}
!5 = !DILocation(line: 81, column: 21, scope: !6)
!6 = distinct !DILexicalBlock(scope: !8, file: !7, line: 74, column: 17)
!7 = !DIFile(filename: "example-4/src/GIN_compute.cc", directory: "/nethome/rsarkar30/examples")
!8 = distinct !DILexicalBlock(scope: !9, file: !7, line: 73, column: 9)
!9 = distinct !DILexicalBlock(scope: !10, file: !7, line: 72, column: 26)
!10 = distinct !DILexicalBlock(scope: !11, file: !7, line: 72, column: 26)
!11 = distinct !DILexicalBlock(scope: !12, file: !7, line: 45, column: 5)
!12 = distinct !DILexicalBlock(scope: !13, file: !7, line: 44, column: 19)
!13 = distinct !DILexicalBlock(scope: !14, file: !7, line: 44, column: 19)
!14 = distinct !DISubprogram(name: "GIN_compute_graphs", scope: !7, file: !7, line: 7, type: !15, isLocal: false, isDefinition: true, scopeLine: 25, flags: DIFlagPrototyped, isOptimized: false, unit: !7595, variables: !4)
!15 = !DISubroutineType(types: !16)
!16 = !{null, !17, !18, !18, !18, !19, !7362, !7466, !7472, !7566, !7572, !7577, !7581, !7584, !7587, !7590, !7593}
!17 = !DIBasicType(name: "int", size: 32, encoding: DW_ATE_signed)
!18 = !DIDerivedType(tag: DW_TAG_pointer_type, baseType: !17, size: 64)
!19 = !DIDerivedType(tag: DW_TAG_pointer_type, baseType: !20, size: 64)
!20 = !DICompositeType(tag: DW_TAG_array_type, baseType: !21, size: 16, elements: !7360)
!21 = !DIDerivedType(tag: DW_TAG_typedef, name: "FM_TYPE", file: !22, line: 57, baseType: !23)
!22 = !DIFile(filename: "example-4/src/dcl.h", directory: "/nethome/rsarkar30/examples")
!23 = distinct !DICompositeType(tag: DW_TAG_structure_type, name: "ap_fixed<16, 6, AP_TRN, AP_WRAP, 0>", file: !24, line: 64, size: 16, flags: DIFlagTypePassByValue, elements: !25, templateParams: !7359, identifier: "_ZTS8ap_fixedILi16ELi6EL9ap_q_mode5EL9ap_o_mode3ELi0EE")
!24 = !DIFile(filename: "/tools/reconfig/xilinx/Vitis/2021.1/Vitis_HLS/2021.1/common/technology/autopilot/ap_fixed.h", directory: "/nethome/rsarkar30/examples")
!25 = !{!26, !7282, !7286, !7289, !7292, !7295, !7298, !7301, !7304, !7307, !7310, !7313, !7316, !7319, !7322, !7325, !7328, !7331, !7334, !7337, !7340, !7346, !7351, !7356}
!26 = !DIDerivedType(tag: DW_TAG_inheritance, scope: !23, baseType: !27)
!27 = distinct !DICompositeType(tag: DW_TAG_structure_type, name: "ap_fixed_base<16, 6, true, AP_TRN, AP_WRAP, 0>", file: !28, line: 156, size: 16, flags: DIFlagTypePassByValue, elements: !29, templateParams: !5470, identifier: "_ZTS13ap_fixed_baseILi16ELi6ELb1EL9ap_q_mode5EL9ap_o_mode3ELi0EE")
!28 = !DIFile(filename: "/tools/reconfig/xilinx/Vitis/2021.1/Vitis_HLS/2021.1/common/technology/autopilot/ap_fixed_base.h", directory: "/nethome/rsarkar30/examples")
!29 = !{!30, !44, !46, !47, !59, !68, !72, !75, !78, !83, !84, !90, !94, !98, !101, !105, !110, !114, !119, !122, !127, !132, !137, !143, !149, !153, !157, !162, !166, !169, !172, !4832, !4835, !4836, !4839, !4842, !4845, !4848, !4851, !4854, !4857, !4861, !4862, !4863, !4864, !4867, !4868, !4871, !4874, !4877, !4880, !4881, !4882, !4885, !4888, !4889, !4890, !4891, !4892, !4895, !4896, !4899, !4900, !4903, !5397, !5398, !5399, !5402, !5405, !5406, !5409, !5410, !5413, !5416, !5417, !5418, !5421, !5422, !5423, !5424, !5425, !5426, !5473, !5476, !5477, !5478, !5481, !7257, !7260, !7263, !7266, !7267, !7268, !7269, !7270, !7271, !7272, !7275, !7278, !7279}
!30 = !DIDerivedType(tag: DW_TAG_inheritance, scope: !27, baseType: !31)
!31 = distinct !DICompositeType(tag: DW_TAG_structure_type, name: "ssdm_int<16, true>", file: !32, line: 512, size: 16, flags: DIFlagTypePassByValue, elements: !33, templateParams: !40, identifier: "_ZTS8ssdm_intILi16ELb1EE")
!32 = !DIFile(filename: "/tools/reconfig/xilinx/Vitis/2021.1/Vitis_HLS/2021.1/common/technology/autopilot/ap_common.h", directory: "/nethome/rsarkar30/examples")
!33 = !{!34, !36}
!34 = !DIDerivedType(tag: DW_TAG_member, name: "V", scope: !31, file: !32, line: 513, baseType: !35, size: 16)
!35 = !DIBasicType(name: "short", size: 16, encoding: DW_ATE_signed)
!36 = !DISubprogram(name: "ssdm_int", scope: !31, file: !32, line: 514, type: !37, isLocal: false, isDefinition: false, scopeLine: 514, flags: DIFlagPrototyped, isOptimized: false)
!37 = !DISubroutineType(types: !38)
!38 = !{null, !39}
!39 = !DIDerivedType(tag: DW_TAG_pointer_type, baseType: !31, size: 64, flags: DIFlagArtificial | DIFlagObjectPointer)
!40 = !{!41, !42}
!41 = !DITemplateValueParameter(name: "_AP_N", type: !17, value: i32 16)
!42 = !DITemplateValueParameter(name: "_AP_S", type: !43, value: i8 1)
!43 = !DIBasicType(name: "bool", size: 8, encoding: DW_ATE_boolean)
!44 = !DIDerivedType(tag: DW_TAG_member, name: "width", scope: !27, file: !28, line: 159, baseType: !45, flags: DIFlagStaticMember, extraData: i32 16)
!45 = !DIDerivedType(tag: DW_TAG_const_type, baseType: !17)
!46 = !DIDerivedType(tag: DW_TAG_member, name: "iwidth", scope: !27, file: !28, line: 160, baseType: !45, flags: DIFlagStaticMember, extraData: i32 6)
!47 = !DIDerivedType(tag: DW_TAG_member, name: "qmode", scope: !27, file: !28, line: 161, baseType: !48, flags: DIFlagStaticMember, extraData: i32 5)
!48 = !DIDerivedType(tag: DW_TAG_const_type, baseType: !49)
!49 = distinct !DICompositeType(tag: DW_TAG_enumeration_type, name: "ap_q_mode", file: !50, line: 100, size: 32, elements: !51, identifier: "_ZTS9ap_q_mode")
!50 = !DIFile(filename: "/tools/reconfig/xilinx/Vitis/2021.1/Vitis_HLS/2021.1/common/technology/autopilot/ap_decl.h", directory: "/nethome/rsarkar30/examples")
!51 = !{!52, !53, !54, !55, !56, !57, !58}
!52 = !DIEnumerator(name: "AP_RND", value: 0)
!53 = !DIEnumerator(name: "AP_RND_ZERO", value: 1)
!54 = !DIEnumerator(name: "AP_RND_MIN_INF", value: 2)
!55 = !DIEnumerator(name: "AP_RND_INF", value: 3)
!56 = !DIEnumerator(name: "AP_RND_CONV", value: 4)
!57 = !DIEnumerator(name: "AP_TRN", value: 5)
!58 = !DIEnumerator(name: "AP_TRN_ZERO", value: 6)
!59 = !DIDerivedType(tag: DW_TAG_member, name: "omode", scope: !27, file: !28, line: 162, baseType: !60, flags: DIFlagStaticMember, extraData: i32 3)
!60 = !DIDerivedType(tag: DW_TAG_const_type, baseType: !61)
!61 = distinct !DICompositeType(tag: DW_TAG_enumeration_type, name: "ap_o_mode", file: !50, line: 122, size: 32, elements: !62, identifier: "_ZTS9ap_o_mode")
!62 = !{!63, !64, !65, !66, !67}
!63 = !DIEnumerator(name: "AP_SAT", value: 0)
!64 = !DIEnumerator(name: "AP_SAT_ZERO", value: 1)
!65 = !DIEnumerator(name: "AP_SAT_SYM", value: 2)
!66 = !DIEnumerator(name: "AP_WRAP", value: 3)
!67 = !DIEnumerator(name: "AP_WRAP_SM", value: 4)
!68 = !DISubprogram(name: "report", linkageName: "_ZN13ap_fixed_baseILi16ELi6ELb1EL9ap_q_mode5EL9ap_o_mode3ELi0EE6reportEv", scope: !27, file: !28, line: 333, type: !69, isLocal: false, isDefinition: false, scopeLine: 333, flags: DIFlagPrivate | DIFlagPrototyped, isOptimized: false)
!69 = !DISubroutineType(types: !70)
!70 = !{null, !71}
!71 = !DIDerivedType(tag: DW_TAG_pointer_type, baseType: !27, size: 64, flags: DIFlagArtificial | DIFlagObjectPointer)
!72 = !DISubprogram(name: "overflow_adjust", linkageName: "_ZN13ap_fixed_baseILi16ELi6ELb1EL9ap_q_mode5EL9ap_o_mode3ELi0EE15overflow_adjustEbbbb", scope: !27, file: !28, line: 338, type: !73, isLocal: false, isDefinition: false, scopeLine: 338, flags: DIFlagPrivate | DIFlagPrototyped, isOptimized: false)
!73 = !DISubroutineType(types: !74)
!74 = !{null, !71, !43, !43, !43, !43}
!75 = !DISubprogram(name: "quantization_adjust", linkageName: "_ZN13ap_fixed_baseILi16ELi6ELb1EL9ap_q_mode5EL9ap_o_mode3ELi0EE19quantization_adjustEbbb", scope: !27, file: !28, line: 402, type: !76, isLocal: false, isDefinition: false, scopeLine: 402, flags: DIFlagPrivate | DIFlagPrototyped, isOptimized: false)
!76 = !DISubroutineType(types: !77)
!77 = !{!43, !71, !43, !43, !43}
!78 = !DISubprogram(name: "countLeadingOnes", linkageName: "_ZNK13ap_fixed_baseILi16ELi6ELb1EL9ap_q_mode5EL9ap_o_mode3ELi0EE16countLeadingOnesEv", scope: !27, file: !28, line: 420, type: !79, isLocal: false, isDefinition: false, scopeLine: 420, flags: DIFlagPrivate | DIFlagPrototyped, isOptimized: false)
!79 = !DISubroutineType(types: !80)
!80 = !{!17, !81}
!81 = !DIDerivedType(tag: DW_TAG_pointer_type, baseType: !82, size: 64, flags: DIFlagArtificial | DIFlagObjectPointer)
!82 = !DIDerivedType(tag: DW_TAG_const_type, baseType: !27)
!83 = !DISubprogram(name: "ap_fixed_base", scope: !27, file: !28, line: 433, type: !69, isLocal: false, isDefinition: false, scopeLine: 433, flags: DIFlagPrototyped, isOptimized: false)
!84 = !DISubprogram(name: "ap_fixed_base", scope: !27, file: !28, line: 486, type: !85, isLocal: false, isDefinition: false, scopeLine: 486, flags: DIFlagPrototyped, isOptimized: false)
!85 = !DISubroutineType(types: !86)
!86 = !{null, !71, !87}
!87 = !DIDerivedType(tag: DW_TAG_pointer_type, baseType: !88, size: 64)
!88 = !DIDerivedType(tag: DW_TAG_const_type, baseType: !89)
!89 = !DIBasicType(name: "char", size: 8, encoding: DW_ATE_signed_char)
!90 = !DISubprogram(name: "ap_fixed_base", scope: !27, file: !28, line: 492, type: !91, isLocal: false, isDefinition: false, scopeLine: 492, flags: DIFlagPrototyped, isOptimized: false)
!91 = !DISubroutineType(types: !92)
!92 = !{null, !71, !87, !93}
!93 = !DIBasicType(name: "signed char", size: 8, encoding: DW_ATE_signed_char)
!94 = !DISubprogram(name: "ap_fixed_base", scope: !27, file: !28, line: 544, type: !95, isLocal: false, isDefinition: false, scopeLine: 544, flags: DIFlagPrototyped, isOptimized: false)
!95 = !DISubroutineType(types: !96)
!96 = !{null, !71, !97}
!97 = !DIDerivedType(tag: DW_TAG_const_type, baseType: !43)
!98 = !DISubprogram(name: "ap_fixed_base", scope: !27, file: !28, line: 545, type: !99, isLocal: false, isDefinition: false, scopeLine: 545, flags: DIFlagPrototyped, isOptimized: false)
!99 = !DISubroutineType(types: !100)
!100 = !{null, !71, !88}
!101 = !DISubprogram(name: "ap_fixed_base", scope: !27, file: !28, line: 546, type: !102, isLocal: false, isDefinition: false, scopeLine: 546, flags: DIFlagPrototyped, isOptimized: false)
!102 = !DISubroutineType(types: !103)
!103 = !{null, !71, !104}
!104 = !DIDerivedType(tag: DW_TAG_const_type, baseType: !93)
!105 = !DISubprogram(name: "ap_fixed_base", scope: !27, file: !28, line: 547, type: !106, isLocal: false, isDefinition: false, scopeLine: 547, flags: DIFlagPrototyped, isOptimized: false)
!106 = !DISubroutineType(types: !107)
!107 = !{null, !71, !108}
!108 = !DIDerivedType(tag: DW_TAG_const_type, baseType: !109)
!109 = !DIBasicType(name: "unsigned char", size: 8, encoding: DW_ATE_unsigned_char)
!110 = !DISubprogram(name: "ap_fixed_base", scope: !27, file: !28, line: 548, type: !111, isLocal: false, isDefinition: false, scopeLine: 548, flags: DIFlagPrototyped, isOptimized: false)
!111 = !DISubroutineType(types: !112)
!112 = !{null, !71, !113}
!113 = !DIDerivedType(tag: DW_TAG_const_type, baseType: !35)
!114 = !DISubprogram(name: "ap_fixed_base", scope: !27, file: !28, line: 549, type: !115, isLocal: false, isDefinition: false, scopeLine: 549, flags: DIFlagPrototyped, isOptimized: false)
!115 = !DISubroutineType(types: !116)
!116 = !{null, !71, !117}
!117 = !DIDerivedType(tag: DW_TAG_const_type, baseType: !118)
!118 = !DIBasicType(name: "unsigned short", size: 16, encoding: DW_ATE_unsigned)
!119 = !DISubprogram(name: "ap_fixed_base", scope: !27, file: !28, line: 550, type: !120, isLocal: false, isDefinition: false, scopeLine: 550, flags: DIFlagPrototyped, isOptimized: false)
!120 = !DISubroutineType(types: !121)
!121 = !{null, !71, !45}
!122 = !DISubprogram(name: "ap_fixed_base", scope: !27, file: !28, line: 551, type: !123, isLocal: false, isDefinition: false, scopeLine: 551, flags: DIFlagPrototyped, isOptimized: false)
!123 = !DISubroutineType(types: !124)
!124 = !{null, !71, !125}
!125 = !DIDerivedType(tag: DW_TAG_const_type, baseType: !126)
!126 = !DIBasicType(name: "unsigned int", size: 32, encoding: DW_ATE_unsigned)
!127 = !DISubprogram(name: "ap_fixed_base", scope: !27, file: !28, line: 552, type: !128, isLocal: false, isDefinition: false, scopeLine: 552, flags: DIFlagPrototyped, isOptimized: false)
!128 = !DISubroutineType(types: !129)
!129 = !{null, !71, !130}
!130 = !DIDerivedType(tag: DW_TAG_const_type, baseType: !131)
!131 = !DIBasicType(name: "long int", size: 64, encoding: DW_ATE_signed)
!132 = !DISubprogram(name: "ap_fixed_base", scope: !27, file: !28, line: 553, type: !133, isLocal: false, isDefinition: false, scopeLine: 553, flags: DIFlagPrototyped, isOptimized: false)
!133 = !DISubroutineType(types: !134)
!134 = !{null, !71, !135}
!135 = !DIDerivedType(tag: DW_TAG_const_type, baseType: !136)
!136 = !DIBasicType(name: "long unsigned int", size: 64, encoding: DW_ATE_unsigned)
!137 = !DISubprogram(name: "ap_fixed_base", scope: !27, file: !28, line: 554, type: !138, isLocal: false, isDefinition: false, scopeLine: 554, flags: DIFlagPrototyped, isOptimized: false)
!138 = !DISubroutineType(types: !139)
!139 = !{null, !71, !140}
!140 = !DIDerivedType(tag: DW_TAG_const_type, baseType: !141)
!141 = !DIDerivedType(tag: DW_TAG_typedef, name: "ap_slong", file: !50, line: 233, baseType: !142)
!142 = !DIBasicType(name: "long long int", size: 64, encoding: DW_ATE_signed)
!143 = !DISubprogram(name: "ap_fixed_base", scope: !27, file: !28, line: 555, type: !144, isLocal: false, isDefinition: false, scopeLine: 555, flags: DIFlagPrototyped, isOptimized: false)
!144 = !DISubroutineType(types: !145)
!145 = !{null, !71, !146}
!146 = !DIDerivedType(tag: DW_TAG_const_type, baseType: !147)
!147 = !DIDerivedType(tag: DW_TAG_typedef, name: "ap_ulong", file: !50, line: 234, baseType: !148)
!148 = !DIBasicType(name: "long long unsigned int", size: 64, encoding: DW_ATE_unsigned)
!149 = !DISubprogram(name: "ap_fixed_base", scope: !27, file: !28, line: 563, type: !150, isLocal: false, isDefinition: false, scopeLine: 563, flags: DIFlagPrototyped, isOptimized: false)
!150 = !DISubroutineType(types: !151)
!151 = !{null, !71, !152}
!152 = !DIBasicType(name: "double", size: 64, encoding: DW_ATE_float)
!153 = !DISubprogram(name: "ap_fixed_base", scope: !27, file: !28, line: 681, type: !154, isLocal: false, isDefinition: false, scopeLine: 681, flags: DIFlagPrototyped, isOptimized: false)
!154 = !DISubroutineType(types: !155)
!155 = !{null, !71, !156}
!156 = !DIBasicType(name: "float", size: 32, encoding: DW_ATE_float)
!157 = !DISubprogram(name: "ap_fixed_base", scope: !27, file: !28, line: 684, type: !158, isLocal: false, isDefinition: false, scopeLine: 684, flags: DIFlagPrototyped, isOptimized: false)
!158 = !DISubroutineType(types: !159)
!159 = !{null, !71, !160}
!160 = !DIDerivedType(tag: DW_TAG_typedef, name: "half", file: !32, line: 612, baseType: !161)
!161 = !DIBasicType(name: "__fp16", size: 16, encoding: DW_ATE_float)
!162 = !DISubprogram(name: "setBits", linkageName: "_ZN13ap_fixed_baseILi16ELi6ELb1EL9ap_q_mode5EL9ap_o_mode3ELi0EE7setBitsEy", scope: !27, file: !28, line: 816, type: !163, isLocal: false, isDefinition: false, scopeLine: 816, flags: DIFlagPrototyped, isOptimized: false)
!163 = !DISubroutineType(types: !164)
!164 = !{!165, !71, !147}
!165 = !DIDerivedType(tag: DW_TAG_reference_type, baseType: !27, size: 64)
!166 = !DISubprogram(name: "bitsToFixed", linkageName: "_ZN13ap_fixed_baseILi16ELi6ELb1EL9ap_q_mode5EL9ap_o_mode3ELi0EE11bitsToFixedEy", scope: !27, file: !28, line: 823, type: !167, isLocal: false, isDefinition: false, scopeLine: 823, flags: DIFlagPrototyped | DIFlagStaticMember, isOptimized: false)
!167 = !DISubroutineType(types: !168)
!168 = !{!27, !147}
!169 = !DISubprogram(name: "checkOverflowCsimFix", linkageName: "_ZNK13ap_fixed_baseILi16ELi6ELb1EL9ap_q_mode5EL9ap_o_mode3ELi0EE20checkOverflowCsimFixEib", scope: !27, file: !28, line: 834, type: !170, isLocal: false, isDefinition: false, scopeLine: 834, flags: DIFlagPrototyped, isOptimized: false)
!170 = !DISubroutineType(types: !171)
!171 = !{null, !81, !17, !43}
!172 = !DISubprogram(name: "to_ap_int_base", linkageName: "_ZNK13ap_fixed_baseILi16ELi6ELb1EL9ap_q_mode5EL9ap_o_mode3ELi0EE14to_ap_int_baseEb", scope: !27, file: !28, line: 880, type: !173, isLocal: false, isDefinition: false, scopeLine: 880, flags: DIFlagPrototyped, isOptimized: false)
!173 = !DISubroutineType(types: !174)
!174 = !{!175, !81, !43}
!175 = distinct !DICompositeType(tag: DW_TAG_structure_type, name: "ap_int_base<6, true>", file: !176, line: 101, size: 8, flags: DIFlagTypePassByValue, elements: !177, templateParams: !4831, identifier: "_ZTS11ap_int_baseILi6ELb1EE")
!176 = !DIFile(filename: "/wrk/ci/prod/2021.1.1/rdi_builds/continuous/2021_07_28_3286242/src/shared/hls/clib/include/header_files/ap_int_base.h", directory: "/wrk/ci/prod/2021.1.1/rdi_builds/continuous/2021_07_28_3286242/src/shared")
!177 = !{!178, !189, !190, !191, !196, !200, !203, !206, !209, !212, !215, !218, !221, !224, !227, !230, !236, !241, !246, !249, !252, !255, !258, !263, !267, !272, !273, !277, !280, !283, !286, !289, !292, !295, !298, !301, !304, !307, !310, !313, !316, !325, !328, !331, !334, !337, !340, !343, !344, !347, !350, !353, !356, !359, !362, !365, !368, !372, !373, !374, !375, !378, !379, !382, !385, !386, !389, !390, !391, !392, !393, !394, !395, !398, !399, !400, !495, !496, !499, !4797, !4798, !4799, !4803, !4806, !4809, !4812, !4813, !4814, !4818, !4819, !4820, !4821, !4822, !4823, !4824, !4825, !4826, !4827, !4828}
!178 = !DIDerivedType(tag: DW_TAG_inheritance, scope: !175, baseType: !179)
!179 = distinct !DICompositeType(tag: DW_TAG_structure_type, name: "ssdm_int<6, true>", file: !32, line: 512, size: 8, flags: DIFlagTypePassByValue, elements: !180, templateParams: !187, identifier: "_ZTS8ssdm_intILi6ELb1EE")
!180 = !{!181, !183}
!181 = !DIDerivedType(tag: DW_TAG_member, name: "V", scope: !179, file: !32, line: 513, baseType: !182, size: 6, align: 8)
!182 = !DIBasicType(name: "int6", size: 6, encoding: DW_ATE_signed)
!183 = !DISubprogram(name: "ssdm_int", scope: !179, file: !32, line: 514, type: !184, isLocal: false, isDefinition: false, scopeLine: 514, flags: DIFlagPrototyped, isOptimized: false)
!184 = !DISubroutineType(types: !185)
!185 = !{null, !186}
!186 = !DIDerivedType(tag: DW_TAG_pointer_type, baseType: !179, size: 64, flags: DIFlagArtificial | DIFlagObjectPointer)
!187 = !{!188, !42}
!188 = !DITemplateValueParameter(name: "_AP_N", type: !17, value: i32 6)
!189 = !DIDerivedType(tag: DW_TAG_member, name: "width", scope: !175, file: !176, line: 123, baseType: !45, flags: DIFlagStaticMember, extraData: i32 6)
!190 = !DIDerivedType(tag: DW_TAG_member, name: "sign_flag", scope: !175, file: !176, line: 124, baseType: !97, flags: DIFlagStaticMember, extraData: i1 true)
!191 = !DISubprogram(name: "countLeadingOnes", linkageName: "_ZNK11ap_int_baseILi6ELb1EE16countLeadingOnesEv", scope: !175, file: !176, line: 103, type: !192, isLocal: false, isDefinition: false, scopeLine: 103, flags: DIFlagPrivate | DIFlagPrototyped, isOptimized: false)
!192 = !DISubroutineType(types: !193)
!193 = !{!17, !194}
!194 = !DIDerivedType(tag: DW_TAG_pointer_type, baseType: !195, size: 64, flags: DIFlagArtificial | DIFlagObjectPointer)
!195 = !DIDerivedType(tag: DW_TAG_const_type, baseType: !175)
!196 = !DISubprogram(name: "ap_int_base", scope: !175, file: !176, line: 168, type: !197, isLocal: false, isDefinition: false, scopeLine: 168, flags: DIFlagPrototyped, isOptimized: false)
!197 = !DISubroutineType(types: !198)
!198 = !{null, !199}
!199 = !DIDerivedType(tag: DW_TAG_pointer_type, baseType: !175, size: 64, flags: DIFlagArtificial | DIFlagObjectPointer)
!200 = !DISubprogram(name: "ap_int_base", scope: !175, file: !176, line: 201, type: !201, isLocal: false, isDefinition: false, scopeLine: 201, flags: DIFlagPrototyped, isOptimized: false)
!201 = !DISubroutineType(types: !202)
!202 = !{null, !199, !97}
!203 = !DISubprogram(name: "ap_int_base", scope: !175, file: !176, line: 202, type: !204, isLocal: false, isDefinition: false, scopeLine: 202, flags: DIFlagPrototyped, isOptimized: false)
!204 = !DISubroutineType(types: !205)
!205 = !{null, !199, !88}
!206 = !DISubprogram(name: "ap_int_base", scope: !175, file: !176, line: 203, type: !207, isLocal: false, isDefinition: false, scopeLine: 203, flags: DIFlagPrototyped, isOptimized: false)
!207 = !DISubroutineType(types: !208)
!208 = !{null, !199, !104}
!209 = !DISubprogram(name: "ap_int_base", scope: !175, file: !176, line: 204, type: !210, isLocal: false, isDefinition: false, scopeLine: 204, flags: DIFlagPrototyped, isOptimized: false)
!210 = !DISubroutineType(types: !211)
!211 = !{null, !199, !108}
!212 = !DISubprogram(name: "ap_int_base", scope: !175, file: !176, line: 205, type: !213, isLocal: false, isDefinition: false, scopeLine: 205, flags: DIFlagPrototyped, isOptimized: false)
!213 = !DISubroutineType(types: !214)
!214 = !{null, !199, !113}
!215 = !DISubprogram(name: "ap_int_base", scope: !175, file: !176, line: 206, type: !216, isLocal: false, isDefinition: false, scopeLine: 206, flags: DIFlagPrototyped, isOptimized: false)
!216 = !DISubroutineType(types: !217)
!217 = !{null, !199, !117}
!218 = !DISubprogram(name: "ap_int_base", scope: !175, file: !176, line: 207, type: !219, isLocal: false, isDefinition: false, scopeLine: 207, flags: DIFlagPrototyped, isOptimized: false)
!219 = !DISubroutineType(types: !220)
!220 = !{null, !199, !45}
!221 = !DISubprogram(name: "ap_int_base", scope: !175, file: !176, line: 208, type: !222, isLocal: false, isDefinition: false, scopeLine: 208, flags: DIFlagPrototyped, isOptimized: false)
!222 = !DISubroutineType(types: !223)
!223 = !{null, !199, !125}
!224 = !DISubprogram(name: "ap_int_base", scope: !175, file: !176, line: 209, type: !225, isLocal: false, isDefinition: false, scopeLine: 209, flags: DIFlagPrototyped, isOptimized: false)
!225 = !DISubroutineType(types: !226)
!226 = !{null, !199, !130}
!227 = !DISubprogram(name: "ap_int_base", scope: !175, file: !176, line: 210, type: !228, isLocal: false, isDefinition: false, scopeLine: 210, flags: DIFlagPrototyped, isOptimized: false)
!228 = !DISubroutineType(types: !229)
!229 = !{null, !199, !135}
!230 = !DISubprogram(name: "ap_int_base", scope: !175, file: !176, line: 211, type: !231, isLocal: false, isDefinition: false, scopeLine: 211, flags: DIFlagPrototyped, isOptimized: false)
!231 = !DISubroutineType(types: !232)
!232 = !{null, !199, !233}
!233 = !DIDerivedType(tag: DW_TAG_const_type, baseType: !234)
!234 = !DIDerivedType(tag: DW_TAG_typedef, name: "ap_slong", file: !235, line: 187, baseType: !142)
!235 = !DIFile(filename: "/wrk/ci/prod/2021.1.1/rdi_builds/continuous/2021_07_28_3286242/src/shared/hls/clib/include/header_files/ap_decl.h", directory: "/wrk/ci/prod/2021.1.1/rdi_builds/continuous/2021_07_28_3286242/src/shared")
!236 = !DISubprogram(name: "ap_int_base", scope: !175, file: !176, line: 212, type: !237, isLocal: false, isDefinition: false, scopeLine: 212, flags: DIFlagPrototyped, isOptimized: false)
!237 = !DISubroutineType(types: !238)
!238 = !{null, !199, !239}
!239 = !DIDerivedType(tag: DW_TAG_const_type, baseType: !240)
!240 = !DIDerivedType(tag: DW_TAG_typedef, name: "ap_ulong", file: !235, line: 188, baseType: !148)
!241 = !DISubprogram(name: "ap_int_base", scope: !175, file: !176, line: 217, type: !242, isLocal: false, isDefinition: false, scopeLine: 217, flags: DIFlagPrototyped, isOptimized: false)
!242 = !DISubroutineType(types: !243)
!243 = !{null, !199, !244}
!244 = !DIDerivedType(tag: DW_TAG_typedef, name: "half", file: !245, line: 566, baseType: !161)
!245 = !DIFile(filename: "/wrk/ci/prod/2021.1.1/rdi_builds/continuous/2021_07_28_3286242/src/shared/hls/clib/include/header_files/ap_common.h", directory: "/wrk/ci/prod/2021.1.1/rdi_builds/continuous/2021_07_28_3286242/src/shared")
!246 = !DISubprogram(name: "ap_int_base", scope: !175, file: !176, line: 223, type: !247, isLocal: false, isDefinition: false, scopeLine: 223, flags: DIFlagPrototyped, isOptimized: false)
!247 = !DISubroutineType(types: !248)
!248 = !{null, !199, !156}
!249 = !DISubprogram(name: "ap_int_base", scope: !175, file: !176, line: 282, type: !250, isLocal: false, isDefinition: false, scopeLine: 282, flags: DIFlagPrototyped, isOptimized: false)
!250 = !DISubroutineType(types: !251)
!251 = !{null, !199, !152}
!252 = !DISubprogram(name: "ap_int_base", scope: !175, file: !176, line: 378, type: !253, isLocal: false, isDefinition: false, scopeLine: 378, flags: DIFlagPrototyped, isOptimized: false)
!253 = !DISubroutineType(types: !254)
!254 = !{null, !199, !87}
!255 = !DISubprogram(name: "ap_int_base", scope: !175, file: !176, line: 384, type: !256, isLocal: false, isDefinition: false, scopeLine: 384, flags: DIFlagPrototyped, isOptimized: false)
!256 = !DISubroutineType(types: !257)
!257 = !{null, !199, !87, !93}
!258 = !DISubprogram(name: "read", linkageName: "_ZNV11ap_int_baseILi6ELb1EE4readEv", scope: !175, file: !176, line: 406, type: !259, isLocal: false, isDefinition: false, scopeLine: 406, flags: DIFlagPrototyped, isOptimized: false)
!259 = !DISubroutineType(types: !260)
!260 = !{!175, !261}
!261 = !DIDerivedType(tag: DW_TAG_pointer_type, baseType: !262, size: 64, flags: DIFlagArtificial | DIFlagObjectPointer)
!262 = !DIDerivedType(tag: DW_TAG_volatile_type, baseType: !175)
!263 = !DISubprogram(name: "write", linkageName: "_ZNV11ap_int_baseILi6ELb1EE5writeERKS0_", scope: !175, file: !176, line: 413, type: !264, isLocal: false, isDefinition: false, scopeLine: 413, flags: DIFlagPrototyped, isOptimized: false)
!264 = !DISubroutineType(types: !265)
!265 = !{null, !261, !266}
!266 = !DIDerivedType(tag: DW_TAG_reference_type, baseType: !195, size: 64)
!267 = !DISubprogram(name: "operator=", linkageName: "_ZNV11ap_int_baseILi6ELb1EEaSERVKS0_", scope: !175, file: !176, line: 425, type: !268, isLocal: false, isDefinition: false, scopeLine: 425, flags: DIFlagPrototyped, isOptimized: false)
!268 = !DISubroutineType(types: !269)
!269 = !{null, !261, !270}
!270 = !DIDerivedType(tag: DW_TAG_reference_type, baseType: !271, size: 64)
!271 = !DIDerivedType(tag: DW_TAG_const_type, baseType: !262)
!272 = !DISubprogram(name: "operator=", linkageName: "_ZNV11ap_int_baseILi6ELb1EEaSERKS0_", scope: !175, file: !176, line: 435, type: !264, isLocal: false, isDefinition: false, scopeLine: 435, flags: DIFlagPrototyped, isOptimized: false)
!273 = !DISubprogram(name: "operator=", linkageName: "_ZN11ap_int_baseILi6ELb1EEaSERVKS0_", scope: !175, file: !176, line: 452, type: !274, isLocal: false, isDefinition: false, scopeLine: 452, flags: DIFlagPrototyped, isOptimized: false)
!274 = !DISubroutineType(types: !275)
!275 = !{!276, !199, !270}
!276 = !DIDerivedType(tag: DW_TAG_reference_type, baseType: !175, size: 64)
!277 = !DISubprogram(name: "operator=", linkageName: "_ZN11ap_int_baseILi6ELb1EEaSERKS0_", scope: !175, file: !176, line: 457, type: !278, isLocal: false, isDefinition: false, scopeLine: 457, flags: DIFlagPrototyped, isOptimized: false)
!278 = !DISubroutineType(types: !279)
!279 = !{!276, !199, !266}
!280 = !DISubprogram(name: "operator=", linkageName: "_ZN11ap_int_baseILi6ELb1EEaSEb", scope: !175, file: !176, line: 465, type: !281, isLocal: false, isDefinition: false, scopeLine: 465, flags: DIFlagPrototyped, isOptimized: false)
!281 = !DISubroutineType(types: !282)
!282 = !{!276, !199, !43}
!283 = !DISubprogram(name: "operator=", linkageName: "_ZN11ap_int_baseILi6ELb1EEaSEc", scope: !175, file: !176, line: 466, type: !284, isLocal: false, isDefinition: false, scopeLine: 466, flags: DIFlagPrototyped, isOptimized: false)
!284 = !DISubroutineType(types: !285)
!285 = !{!276, !199, !89}
!286 = !DISubprogram(name: "operator=", linkageName: "_ZN11ap_int_baseILi6ELb1EEaSEa", scope: !175, file: !176, line: 467, type: !287, isLocal: false, isDefinition: false, scopeLine: 467, flags: DIFlagPrototyped, isOptimized: false)
!287 = !DISubroutineType(types: !288)
!288 = !{!276, !199, !93}
!289 = !DISubprogram(name: "operator=", linkageName: "_ZN11ap_int_baseILi6ELb1EEaSEh", scope: !175, file: !176, line: 468, type: !290, isLocal: false, isDefinition: false, scopeLine: 468, flags: DIFlagPrototyped, isOptimized: false)
!290 = !DISubroutineType(types: !291)
!291 = !{!276, !199, !109}
!292 = !DISubprogram(name: "operator=", linkageName: "_ZN11ap_int_baseILi6ELb1EEaSEs", scope: !175, file: !176, line: 469, type: !293, isLocal: false, isDefinition: false, scopeLine: 469, flags: DIFlagPrototyped, isOptimized: false)
!293 = !DISubroutineType(types: !294)
!294 = !{!276, !199, !35}
!295 = !DISubprogram(name: "operator=", linkageName: "_ZN11ap_int_baseILi6ELb1EEaSEt", scope: !175, file: !176, line: 470, type: !296, isLocal: false, isDefinition: false, scopeLine: 470, flags: DIFlagPrototyped, isOptimized: false)
!296 = !DISubroutineType(types: !297)
!297 = !{!276, !199, !118}
!298 = !DISubprogram(name: "operator=", linkageName: "_ZN11ap_int_baseILi6ELb1EEaSEi", scope: !175, file: !176, line: 471, type: !299, isLocal: false, isDefinition: false, scopeLine: 471, flags: DIFlagPrototyped, isOptimized: false)
!299 = !DISubroutineType(types: !300)
!300 = !{!276, !199, !17}
!301 = !DISubprogram(name: "operator=", linkageName: "_ZN11ap_int_baseILi6ELb1EEaSEj", scope: !175, file: !176, line: 472, type: !302, isLocal: false, isDefinition: false, scopeLine: 472, flags: DIFlagPrototyped, isOptimized: false)
!302 = !DISubroutineType(types: !303)
!303 = !{!276, !199, !126}
!304 = !DISubprogram(name: "operator=", linkageName: "_ZN11ap_int_baseILi6ELb1EEaSEl", scope: !175, file: !176, line: 473, type: !305, isLocal: false, isDefinition: false, scopeLine: 473, flags: DIFlagPrototyped, isOptimized: false)
!305 = !DISubroutineType(types: !306)
!306 = !{!276, !199, !131}
!307 = !DISubprogram(name: "operator=", linkageName: "_ZN11ap_int_baseILi6ELb1EEaSEm", scope: !175, file: !176, line: 474, type: !308, isLocal: false, isDefinition: false, scopeLine: 474, flags: DIFlagPrototyped, isOptimized: false)
!308 = !DISubroutineType(types: !309)
!309 = !{!276, !199, !136}
!310 = !DISubprogram(name: "operator=", linkageName: "_ZN11ap_int_baseILi6ELb1EEaSEx", scope: !175, file: !176, line: 475, type: !311, isLocal: false, isDefinition: false, scopeLine: 475, flags: DIFlagPrototyped, isOptimized: false)
!311 = !DISubroutineType(types: !312)
!312 = !{!276, !199, !234}
!313 = !DISubprogram(name: "operator=", linkageName: "_ZN11ap_int_baseILi6ELb1EEaSEy", scope: !175, file: !176, line: 476, type: !314, isLocal: false, isDefinition: false, scopeLine: 476, flags: DIFlagPrototyped, isOptimized: false)
!314 = !DISubroutineType(types: !315)
!315 = !{!276, !199, !240}
!316 = !DISubprogram(name: "operator long long", linkageName: "_ZNK11ap_int_baseILi6ELb1EEcvxEv", scope: !175, file: !176, line: 527, type: !317, isLocal: false, isDefinition: false, scopeLine: 527, flags: DIFlagPrototyped, isOptimized: false)
!317 = !DISubroutineType(types: !318)
!318 = !{!319, !194}
!319 = !DIDerivedType(tag: DW_TAG_typedef, name: "RetType", scope: !175, file: !176, line: 121, baseType: !320)
!320 = !DIDerivedType(tag: DW_TAG_typedef, name: "Type", scope: !321, file: !176, line: 39, baseType: !234)
!321 = distinct !DICompositeType(tag: DW_TAG_structure_type, name: "retval<8, true>", file: !322, line: 84, size: 8, flags: DIFlagTypePassByValue, elements: !4, templateParams: !323, identifier: "_ZTS6retvalILi8ELb1EE")
!322 = !DIFile(filename: "/tools/reconfig/xilinx/Vitis/2021.1/Vitis_HLS/2021.1/common/technology/autopilot/ap_int_base.h", directory: "/nethome/rsarkar30/examples")
!323 = !{!324, !42}
!324 = !DITemplateValueParameter(name: "_AP_N", type: !17, value: i32 8)
!325 = !DISubprogram(name: "to_bool", linkageName: "_ZNK11ap_int_baseILi6ELb1EE7to_boolEv", scope: !175, file: !176, line: 532, type: !326, isLocal: false, isDefinition: false, scopeLine: 532, flags: DIFlagPrototyped, isOptimized: false)
!326 = !DISubroutineType(types: !327)
!327 = !{!43, !194}
!328 = !DISubprogram(name: "to_char", linkageName: "_ZNK11ap_int_baseILi6ELb1EE7to_charEv", scope: !175, file: !176, line: 533, type: !329, isLocal: false, isDefinition: false, scopeLine: 533, flags: DIFlagPrototyped, isOptimized: false)
!329 = !DISubroutineType(types: !330)
!330 = !{!89, !194}
!331 = !DISubprogram(name: "to_schar", linkageName: "_ZNK11ap_int_baseILi6ELb1EE8to_scharEv", scope: !175, file: !176, line: 534, type: !332, isLocal: false, isDefinition: false, scopeLine: 534, flags: DIFlagPrototyped, isOptimized: false)
!332 = !DISubroutineType(types: !333)
!333 = !{!93, !194}
!334 = !DISubprogram(name: "to_uchar", linkageName: "_ZNK11ap_int_baseILi6ELb1EE8to_ucharEv", scope: !175, file: !176, line: 535, type: !335, isLocal: false, isDefinition: false, scopeLine: 535, flags: DIFlagPrototyped, isOptimized: false)
!335 = !DISubroutineType(types: !336)
!336 = !{!109, !194}
!337 = !DISubprogram(name: "to_short", linkageName: "_ZNK11ap_int_baseILi6ELb1EE8to_shortEv", scope: !175, file: !176, line: 536, type: !338, isLocal: false, isDefinition: false, scopeLine: 536, flags: DIFlagPrototyped, isOptimized: false)
!338 = !DISubroutineType(types: !339)
!339 = !{!35, !194}
!340 = !DISubprogram(name: "to_ushort", linkageName: "_ZNK11ap_int_baseILi6ELb1EE9to_ushortEv", scope: !175, file: !176, line: 537, type: !341, isLocal: false, isDefinition: false, scopeLine: 537, flags: DIFlagPrototyped, isOptimized: false)
!341 = !DISubroutineType(types: !342)
!342 = !{!118, !194}
!343 = !DISubprogram(name: "to_int", linkageName: "_ZNK11ap_int_baseILi6ELb1EE6to_intEv", scope: !175, file: !176, line: 538, type: !192, isLocal: false, isDefinition: false, scopeLine: 538, flags: DIFlagPrototyped, isOptimized: false)
!344 = !DISubprogram(name: "to_uint", linkageName: "_ZNK11ap_int_baseILi6ELb1EE7to_uintEv", scope: !175, file: !176, line: 539, type: !345, isLocal: false, isDefinition: false, scopeLine: 539, flags: DIFlagPrototyped, isOptimized: false)
!345 = !DISubroutineType(types: !346)
!346 = !{!126, !194}
!347 = !DISubprogram(name: "to_long", linkageName: "_ZNK11ap_int_baseILi6ELb1EE7to_longEv", scope: !175, file: !176, line: 540, type: !348, isLocal: false, isDefinition: false, scopeLine: 540, flags: DIFlagPrototyped, isOptimized: false)
!348 = !DISubroutineType(types: !349)
!349 = !{!131, !194}
!350 = !DISubprogram(name: "to_ulong", linkageName: "_ZNK11ap_int_baseILi6ELb1EE8to_ulongEv", scope: !175, file: !176, line: 541, type: !351, isLocal: false, isDefinition: false, scopeLine: 541, flags: DIFlagPrototyped, isOptimized: false)
!351 = !DISubroutineType(types: !352)
!352 = !{!136, !194}
!353 = !DISubprogram(name: "to_int64", linkageName: "_ZNK11ap_int_baseILi6ELb1EE8to_int64Ev", scope: !175, file: !176, line: 542, type: !354, isLocal: false, isDefinition: false, scopeLine: 542, flags: DIFlagPrototyped, isOptimized: false)
!354 = !DISubroutineType(types: !355)
!355 = !{!234, !194}
!356 = !DISubprogram(name: "to_uint64", linkageName: "_ZNK11ap_int_baseILi6ELb1EE9to_uint64Ev", scope: !175, file: !176, line: 543, type: !357, isLocal: false, isDefinition: false, scopeLine: 543, flags: DIFlagPrototyped, isOptimized: false)
!357 = !DISubroutineType(types: !358)
!358 = !{!240, !194}
!359 = !DISubprogram(name: "to_half", linkageName: "_ZNK11ap_int_baseILi6ELb1EE7to_halfEv", scope: !175, file: !176, line: 544, type: !360, isLocal: false, isDefinition: false, scopeLine: 544, flags: DIFlagPrototyped, isOptimized: false)
!360 = !DISubroutineType(types: !361)
!361 = !{!244, !194}
!362 = !DISubprogram(name: "to_float", linkageName: "_ZNK11ap_int_baseILi6ELb1EE8to_floatEv", scope: !175, file: !176, line: 545, type: !363, isLocal: false, isDefinition: false, scopeLine: 545, flags: DIFlagPrototyped, isOptimized: false)
!363 = !DISubroutineType(types: !364)
!364 = !{!156, !194}
!365 = !DISubprogram(name: "to_double", linkageName: "_ZNK11ap_int_baseILi6ELb1EE9to_doubleEv", scope: !175, file: !176, line: 546, type: !366, isLocal: false, isDefinition: false, scopeLine: 546, flags: DIFlagPrototyped, isOptimized: false)
!366 = !DISubroutineType(types: !367)
!367 = !{!152, !194}
!368 = !DISubprogram(name: "length", linkageName: "_ZNVK11ap_int_baseILi6ELb1EE6lengthEv", scope: !175, file: !176, line: 570, type: !369, isLocal: false, isDefinition: false, scopeLine: 570, flags: DIFlagPrototyped, isOptimized: false)
!369 = !DISubroutineType(types: !370)
!370 = !{!17, !371}
!371 = !DIDerivedType(tag: DW_TAG_pointer_type, baseType: !271, size: 64, flags: DIFlagArtificial | DIFlagObjectPointer)
!372 = !DISubprogram(name: "iszero", linkageName: "_ZNK11ap_int_baseILi6ELb1EE6iszeroEv", scope: !175, file: !176, line: 573, type: !326, isLocal: false, isDefinition: false, scopeLine: 573, flags: DIFlagPrototyped, isOptimized: false)
!373 = !DISubprogram(name: "is_zero", linkageName: "_ZNK11ap_int_baseILi6ELb1EE7is_zeroEv", scope: !175, file: !176, line: 576, type: !326, isLocal: false, isDefinition: false, scopeLine: 576, flags: DIFlagPrototyped, isOptimized: false)
!374 = !DISubprogram(name: "sign", linkageName: "_ZNK11ap_int_baseILi6ELb1EE4signEv", scope: !175, file: !176, line: 579, type: !326, isLocal: false, isDefinition: false, scopeLine: 579, flags: DIFlagPrototyped, isOptimized: false)
!375 = !DISubprogram(name: "clear", linkageName: "_ZN11ap_int_baseILi6ELb1EE5clearEi", scope: !175, file: !176, line: 588, type: !376, isLocal: false, isDefinition: false, scopeLine: 588, flags: DIFlagPrototyped, isOptimized: false)
!376 = !DISubroutineType(types: !377)
!377 = !{null, !199, !17}
!378 = !DISubprogram(name: "invert", linkageName: "_ZN11ap_int_baseILi6ELb1EE6invertEi", scope: !175, file: !176, line: 594, type: !376, isLocal: false, isDefinition: false, scopeLine: 594, flags: DIFlagPrototyped, isOptimized: false)
!379 = !DISubprogram(name: "test", linkageName: "_ZNK11ap_int_baseILi6ELb1EE4testEi", scope: !175, file: !176, line: 603, type: !380, isLocal: false, isDefinition: false, scopeLine: 603, flags: DIFlagPrototyped, isOptimized: false)
!380 = !DISubroutineType(types: !381)
!381 = !{!43, !194, !17}
!382 = !DISubprogram(name: "get", linkageName: "_ZN11ap_int_baseILi6ELb1EE3getEv", scope: !175, file: !176, line: 609, type: !383, isLocal: false, isDefinition: false, scopeLine: 609, flags: DIFlagPrototyped, isOptimized: false)
!383 = !DISubroutineType(types: !384)
!384 = !{!276, !199}
!385 = !DISubprogram(name: "set", linkageName: "_ZN11ap_int_baseILi6ELb1EE3setEi", scope: !175, file: !176, line: 612, type: !376, isLocal: false, isDefinition: false, scopeLine: 612, flags: DIFlagPrototyped, isOptimized: false)
!386 = !DISubprogram(name: "set", linkageName: "_ZN11ap_int_baseILi6ELb1EE3setEib", scope: !175, file: !176, line: 618, type: !387, isLocal: false, isDefinition: false, scopeLine: 618, flags: DIFlagPrototyped, isOptimized: false)
!387 = !DISubroutineType(types: !388)
!388 = !{null, !199, !17, !43}
!389 = !DISubprogram(name: "lrotate", linkageName: "_ZN11ap_int_baseILi6ELb1EE7lrotateEi", scope: !175, file: !176, line: 625, type: !299, isLocal: false, isDefinition: false, scopeLine: 625, flags: DIFlagPrototyped, isOptimized: false)
!390 = !DISubprogram(name: "rrotate", linkageName: "_ZN11ap_int_baseILi6ELb1EE7rrotateEi", scope: !175, file: !176, line: 640, type: !299, isLocal: false, isDefinition: false, scopeLine: 640, flags: DIFlagPrototyped, isOptimized: false)
!391 = !DISubprogram(name: "reverse", linkageName: "_ZN11ap_int_baseILi6ELb1EE7reverseEv", scope: !175, file: !176, line: 655, type: !383, isLocal: false, isDefinition: false, scopeLine: 655, flags: DIFlagPrototyped, isOptimized: false)
!392 = !DISubprogram(name: "set_bit", linkageName: "_ZN11ap_int_baseILi6ELb1EE7set_bitEib", scope: !175, file: !176, line: 661, type: !387, isLocal: false, isDefinition: false, scopeLine: 661, flags: DIFlagPrototyped, isOptimized: false)
!393 = !DISubprogram(name: "get_bit", linkageName: "_ZNK11ap_int_baseILi6ELb1EE7get_bitEi", scope: !175, file: !176, line: 666, type: !380, isLocal: false, isDefinition: false, scopeLine: 666, flags: DIFlagPrototyped, isOptimized: false)
!394 = !DISubprogram(name: "b_not", linkageName: "_ZN11ap_int_baseILi6ELb1EE5b_notEv", scope: !175, file: !176, line: 671, type: !197, isLocal: false, isDefinition: false, scopeLine: 671, flags: DIFlagPrototyped, isOptimized: false)
!395 = !DISubprogram(name: "checkOverflowCsim", linkageName: "_ZNK11ap_int_baseILi6ELb1EE17checkOverflowCsimEibb", scope: !175, file: !176, line: 745, type: !396, isLocal: false, isDefinition: false, scopeLine: 745, flags: DIFlagPrototyped, isOptimized: false)
!396 = !DISubroutineType(types: !397)
!397 = !{!43, !194, !17, !43, !43}
!398 = !DISubprogram(name: "operator++", linkageName: "_ZN11ap_int_baseILi6ELb1EEppEv", scope: !175, file: !176, line: 849, type: !383, isLocal: false, isDefinition: false, scopeLine: 849, flags: DIFlagPrototyped, isOptimized: false)
!399 = !DISubprogram(name: "operator--", linkageName: "_ZN11ap_int_baseILi6ELb1EEmmEv", scope: !175, file: !176, line: 853, type: !383, isLocal: false, isDefinition: false, scopeLine: 853, flags: DIFlagPrototyped, isOptimized: false)
!400 = !DISubprogram(name: "operator++", linkageName: "_ZN11ap_int_baseILi6ELb1EEppEi", scope: !175, file: !176, line: 861, type: !401, isLocal: false, isDefinition: false, scopeLine: 861, flags: DIFlagPrototyped, isOptimized: false)
!401 = !DISubroutineType(types: !402)
!402 = !{!403, !199, !17}
!403 = !DIDerivedType(tag: DW_TAG_const_type, baseType: !404)
!404 = !DIDerivedType(tag: DW_TAG_typedef, name: "arg1", scope: !405, file: !176, line: 160, baseType: !409)
!405 = distinct !DICompositeType(tag: DW_TAG_structure_type, name: "RType<6, true>", scope: !175, file: !176, line: 127, size: 8, flags: DIFlagTypePassByValue, elements: !4, templateParams: !406, identifier: "_ZTSN11ap_int_baseILi6ELb1EE5RTypeILi6ELb1EEE")
!406 = !{!407, !408}
!407 = !DITemplateValueParameter(name: "_AP_W2", type: !17, value: i32 6)
!408 = !DITemplateValueParameter(name: "_AP_S2", type: !43, value: i8 1)
!409 = !DIDerivedType(tag: DW_TAG_typedef, name: "type", scope: !410, file: !176, line: 96, baseType: !411)
!410 = distinct !DICompositeType(tag: DW_TAG_structure_type, name: "_ap_int_factory<6, true>", file: !322, line: 142, size: 8, flags: DIFlagTypePassByValue, elements: !4, templateParams: !406, identifier: "_ZTS15_ap_int_factoryILi6ELb1EE")
!411 = distinct !DICompositeType(tag: DW_TAG_structure_type, name: "ap_int<6>", file: !412, line: 17, size: 8, flags: DIFlagTypePassByValue, elements: !413, templateParams: !493, identifier: "_ZTS6ap_intILi6EE")
!412 = !DIFile(filename: "/wrk/ci/prod/2021.1.1/rdi_builds/continuous/2021_07_28_3286242/src/shared/hls/clib/include/header_files/ap_int.h", directory: "/wrk/ci/prod/2021.1.1/rdi_builds/continuous/2021_07_28_3286242/src/shared")
!413 = !{!414, !415, !419, !423, !426, !429, !432, !435, !438, !441, !444, !447, !450, !453, !456, !459, !462, !465, !468, !471, !474, !480, !486, !490}
!414 = !DIDerivedType(tag: DW_TAG_inheritance, scope: !411, baseType: !175)
!415 = !DISubprogram(name: "ap_int", scope: !411, file: !412, line: 20, type: !416, isLocal: false, isDefinition: false, scopeLine: 20, flags: DIFlagPrototyped, isOptimized: false)
!416 = !DISubroutineType(types: !417)
!417 = !{null, !418}
!418 = !DIDerivedType(tag: DW_TAG_pointer_type, baseType: !411, size: 64, flags: DIFlagArtificial | DIFlagObjectPointer)
!419 = !DISubprogram(name: "ap_int", scope: !411, file: !412, line: 48, type: !420, isLocal: false, isDefinition: false, scopeLine: 48, flags: DIFlagPrototyped, isOptimized: false)
!420 = !DISubroutineType(types: !421)
!421 = !{null, !418, !422, !43}
!422 = !DIBasicType(name: "uint6", size: 6, encoding: DW_ATE_unsigned)
!423 = !DISubprogram(name: "ap_int", scope: !411, file: !412, line: 116, type: !424, isLocal: false, isDefinition: false, scopeLine: 116, flags: DIFlagPrototyped, isOptimized: false)
!424 = !DISubroutineType(types: !425)
!425 = !{null, !418, !43}
!426 = !DISubprogram(name: "ap_int", scope: !411, file: !412, line: 117, type: !427, isLocal: false, isDefinition: false, scopeLine: 117, flags: DIFlagPrototyped, isOptimized: false)
!427 = !DISubroutineType(types: !428)
!428 = !{null, !418, !89}
!429 = !DISubprogram(name: "ap_int", scope: !411, file: !412, line: 118, type: !430, isLocal: false, isDefinition: false, scopeLine: 118, flags: DIFlagPrototyped, isOptimized: false)
!430 = !DISubroutineType(types: !431)
!431 = !{null, !418, !93}
!432 = !DISubprogram(name: "ap_int", scope: !411, file: !412, line: 119, type: !433, isLocal: false, isDefinition: false, scopeLine: 119, flags: DIFlagPrototyped, isOptimized: false)
!433 = !DISubroutineType(types: !434)
!434 = !{null, !418, !109}
!435 = !DISubprogram(name: "ap_int", scope: !411, file: !412, line: 120, type: !436, isLocal: false, isDefinition: false, scopeLine: 120, flags: DIFlagPrototyped, isOptimized: false)
!436 = !DISubroutineType(types: !437)
!437 = !{null, !418, !35}
!438 = !DISubprogram(name: "ap_int", scope: !411, file: !412, line: 121, type: !439, isLocal: false, isDefinition: false, scopeLine: 121, flags: DIFlagPrototyped, isOptimized: false)
!439 = !DISubroutineType(types: !440)
!440 = !{null, !418, !118}
!441 = !DISubprogram(name: "ap_int", scope: !411, file: !412, line: 122, type: !442, isLocal: false, isDefinition: false, scopeLine: 122, flags: DIFlagPrototyped, isOptimized: false)
!442 = !DISubroutineType(types: !443)
!443 = !{null, !418, !17}
!444 = !DISubprogram(name: "ap_int", scope: !411, file: !412, line: 123, type: !445, isLocal: false, isDefinition: false, scopeLine: 123, flags: DIFlagPrototyped, isOptimized: false)
!445 = !DISubroutineType(types: !446)
!446 = !{null, !418, !126}
!447 = !DISubprogram(name: "ap_int", scope: !411, file: !412, line: 124, type: !448, isLocal: false, isDefinition: false, scopeLine: 124, flags: DIFlagPrototyped, isOptimized: false)
!448 = !DISubroutineType(types: !449)
!449 = !{null, !418, !131}
!450 = !DISubprogram(name: "ap_int", scope: !411, file: !412, line: 125, type: !451, isLocal: false, isDefinition: false, scopeLine: 125, flags: DIFlagPrototyped, isOptimized: false)
!451 = !DISubroutineType(types: !452)
!452 = !{null, !418, !136}
!453 = !DISubprogram(name: "ap_int", scope: !411, file: !412, line: 126, type: !454, isLocal: false, isDefinition: false, scopeLine: 126, flags: DIFlagPrototyped, isOptimized: false)
!454 = !DISubroutineType(types: !455)
!455 = !{null, !418, !234}
!456 = !DISubprogram(name: "ap_int", scope: !411, file: !412, line: 127, type: !457, isLocal: false, isDefinition: false, scopeLine: 127, flags: DIFlagPrototyped, isOptimized: false)
!457 = !DISubroutineType(types: !458)
!458 = !{null, !418, !240}
!459 = !DISubprogram(name: "ap_int", scope: !411, file: !412, line: 129, type: !460, isLocal: false, isDefinition: false, scopeLine: 129, flags: DIFlagPrototyped, isOptimized: false)
!460 = !DISubroutineType(types: !461)
!461 = !{null, !418, !152}
!462 = !DISubprogram(name: "ap_int", scope: !411, file: !412, line: 130, type: !463, isLocal: false, isDefinition: false, scopeLine: 130, flags: DIFlagPrototyped, isOptimized: false)
!463 = !DISubroutineType(types: !464)
!464 = !{null, !418, !156}
!465 = !DISubprogram(name: "ap_int", scope: !411, file: !412, line: 131, type: !466, isLocal: false, isDefinition: false, scopeLine: 131, flags: DIFlagPrototyped, isOptimized: false)
!466 = !DISubroutineType(types: !467)
!467 = !{null, !418, !244}
!468 = !DISubprogram(name: "ap_int", scope: !411, file: !412, line: 134, type: !469, isLocal: false, isDefinition: false, scopeLine: 134, flags: DIFlagPrototyped, isOptimized: false)
!469 = !DISubroutineType(types: !470)
!470 = !{null, !418, !87}
!471 = !DISubprogram(name: "ap_int", scope: !411, file: !412, line: 136, type: !472, isLocal: false, isDefinition: false, scopeLine: 136, flags: DIFlagPrototyped, isOptimized: false)
!472 = !DISubroutineType(types: !473)
!473 = !{null, !418, !87, !93}
!474 = !DISubprogram(name: "operator=", linkageName: "_ZN6ap_intILi6EEaSERKS0_", scope: !411, file: !412, line: 141, type: !475, isLocal: false, isDefinition: false, scopeLine: 141, flags: DIFlagPrototyped, isOptimized: false)
!475 = !DISubroutineType(types: !476)
!476 = !{!477, !418, !478}
!477 = !DIDerivedType(tag: DW_TAG_reference_type, baseType: !411, size: 64)
!478 = !DIDerivedType(tag: DW_TAG_reference_type, baseType: !479, size: 64)
!479 = !DIDerivedType(tag: DW_TAG_const_type, baseType: !411)
!480 = !DISubprogram(name: "operator=", linkageName: "_ZN6ap_intILi6EEaSERVKS0_", scope: !411, file: !412, line: 144, type: !481, isLocal: false, isDefinition: false, scopeLine: 144, flags: DIFlagPrototyped, isOptimized: false)
!481 = !DISubroutineType(types: !482)
!482 = !{!477, !418, !483}
!483 = !DIDerivedType(tag: DW_TAG_reference_type, baseType: !484, size: 64)
!484 = !DIDerivedType(tag: DW_TAG_const_type, baseType: !485)
!485 = !DIDerivedType(tag: DW_TAG_volatile_type, baseType: !411)
!486 = !DISubprogram(name: "operator=", linkageName: "_ZNV6ap_intILi6EEaSERKS0_", scope: !411, file: !412, line: 150, type: !487, isLocal: false, isDefinition: false, scopeLine: 150, flags: DIFlagPrototyped, isOptimized: false)
!487 = !DISubroutineType(types: !488)
!488 = !{null, !489, !478}
!489 = !DIDerivedType(tag: DW_TAG_pointer_type, baseType: !485, size: 64, flags: DIFlagArtificial | DIFlagObjectPointer)
!490 = !DISubprogram(name: "operator=", linkageName: "_ZNV6ap_intILi6EEaSERVKS0_", scope: !411, file: !412, line: 154, type: !491, isLocal: false, isDefinition: false, scopeLine: 154, flags: DIFlagPrototyped, isOptimized: false)
!491 = !DISubroutineType(types: !492)
!492 = !{null, !489, !483}
!493 = !{!494}
!494 = !DITemplateValueParameter(name: "_AP_W", type: !17, value: i32 6)
!495 = !DISubprogram(name: "operator--", linkageName: "_ZN11ap_int_baseILi6ELb1EEmmEi", scope: !175, file: !176, line: 866, type: !401, isLocal: false, isDefinition: false, scopeLine: 866, flags: DIFlagPrototyped, isOptimized: false)
!496 = !DISubprogram(name: "operator+", linkageName: "_ZNK11ap_int_baseILi6ELb1EEpsEv", scope: !175, file: !176, line: 875, type: !497, isLocal: false, isDefinition: false, scopeLine: 875, flags: DIFlagPrototyped, isOptimized: false)
!497 = !DISubroutineType(types: !498)
!498 = !{!404, !194}
!499 = !DISubprogram(name: "operator-", linkageName: "_ZNK11ap_int_baseILi6ELb1EEngEv", scope: !175, file: !176, line: 878, type: !500, isLocal: false, isDefinition: false, scopeLine: 878, flags: DIFlagPrototyped, isOptimized: false)
!500 = !DISubroutineType(types: !501)
!501 = !{!502, !194}
!502 = !DIDerivedType(tag: DW_TAG_typedef, name: "minus", scope: !503, file: !176, line: 156, baseType: !507)
!503 = distinct !DICompositeType(tag: DW_TAG_structure_type, name: "RType<1, false>", scope: !175, file: !176, line: 127, size: 8, flags: DIFlagTypePassByValue, elements: !4, templateParams: !504, identifier: "_ZTSN11ap_int_baseILi6ELb1EE5RTypeILi1ELb0EEE")
!504 = !{!505, !506}
!505 = !DITemplateValueParameter(name: "_AP_W2", type: !17, value: i32 1)
!506 = !DITemplateValueParameter(name: "_AP_S2", type: !43, value: i8 0)
!507 = !DIDerivedType(tag: DW_TAG_typedef, name: "type", scope: !508, file: !176, line: 96, baseType: !511)
!508 = distinct !DICompositeType(tag: DW_TAG_structure_type, name: "_ap_int_factory<7, true>", file: !322, line: 142, size: 8, flags: DIFlagTypePassByValue, elements: !4, templateParams: !509, identifier: "_ZTS15_ap_int_factoryILi7ELb1EE")
!509 = !{!510, !408}
!510 = !DITemplateValueParameter(name: "_AP_W2", type: !17, value: i32 7)
!511 = distinct !DICompositeType(tag: DW_TAG_structure_type, name: "ap_int<7>", file: !512, line: 63, size: 8, flags: DIFlagTypePassByValue, elements: !513, templateParams: !4796, identifier: "_ZTS6ap_intILi7EE")
!512 = !DIFile(filename: "/tools/reconfig/xilinx/Vitis/2021.1/Vitis_HLS/2021.1/common/technology/autopilot/ap_int.h", directory: "/nethome/rsarkar30/examples")
!513 = !{!514, !4718, !4722, !4726, !4729, !4732, !4735, !4738, !4741, !4744, !4747, !4750, !4753, !4756, !4759, !4762, !4765, !4768, !4771, !4774, !4777, !4783, !4789, !4793}
!514 = !DIDerivedType(tag: DW_TAG_inheritance, scope: !511, baseType: !515)
!515 = distinct !DICompositeType(tag: DW_TAG_structure_type, name: "ap_int_base<7, true>", file: !322, line: 147, size: 8, flags: DIFlagTypePassByValue, elements: !516, templateParams: !4716, identifier: "_ZTS11ap_int_baseILi7ELb1EE")
!516 = !{!517, !528, !529, !530, !535, !539, !542, !545, !548, !551, !554, !557, !560, !563, !566, !569, !572, !575, !578, !581, !584, !587, !590, !595, !599, !604, !605, !609, !612, !615, !618, !621, !624, !627, !630, !633, !636, !639, !642, !645, !648, !653, !656, !659, !662, !665, !668, !671, !672, !675, !678, !681, !684, !687, !690, !693, !696, !700, !701, !702, !703, !706, !707, !710, !713, !714, !717, !718, !719, !720, !721, !722, !723, !726, !727, !728, !735, !736, !739, !4682, !4683, !4684, !4688, !4691, !4694, !4697, !4698, !4699, !4703, !4704, !4705, !4706, !4707, !4708, !4709, !4710, !4711, !4712, !4713}
!517 = !DIDerivedType(tag: DW_TAG_inheritance, scope: !515, baseType: !518)
!518 = distinct !DICompositeType(tag: DW_TAG_structure_type, name: "ssdm_int<7, true>", file: !32, line: 512, size: 8, flags: DIFlagTypePassByValue, elements: !519, templateParams: !526, identifier: "_ZTS8ssdm_intILi7ELb1EE")
!519 = !{!520, !522}
!520 = !DIDerivedType(tag: DW_TAG_member, name: "V", scope: !518, file: !32, line: 513, baseType: !521, size: 7, align: 8)
!521 = !DIBasicType(name: "int7", size: 7, encoding: DW_ATE_signed)
!522 = !DISubprogram(name: "ssdm_int", scope: !518, file: !32, line: 514, type: !523, isLocal: false, isDefinition: false, scopeLine: 514, flags: DIFlagPrototyped, isOptimized: false)
!523 = !DISubroutineType(types: !524)
!524 = !{null, !525}
!525 = !DIDerivedType(tag: DW_TAG_pointer_type, baseType: !518, size: 64, flags: DIFlagArtificial | DIFlagObjectPointer)
!526 = !{!527, !42}
!527 = !DITemplateValueParameter(name: "_AP_N", type: !17, value: i32 7)
!528 = !DIDerivedType(tag: DW_TAG_member, name: "width", scope: !515, file: !322, line: 169, baseType: !45, flags: DIFlagStaticMember, extraData: i32 7)
!529 = !DIDerivedType(tag: DW_TAG_member, name: "sign_flag", scope: !515, file: !322, line: 170, baseType: !97, flags: DIFlagStaticMember, extraData: i1 true)
!530 = !DISubprogram(name: "countLeadingOnes", linkageName: "_ZNK11ap_int_baseILi7ELb1EE16countLeadingOnesEv", scope: !515, file: !322, line: 149, type: !531, isLocal: false, isDefinition: false, scopeLine: 149, flags: DIFlagPrivate | DIFlagPrototyped, isOptimized: false)
!531 = !DISubroutineType(types: !532)
!532 = !{!17, !533}
!533 = !DIDerivedType(tag: DW_TAG_pointer_type, baseType: !534, size: 64, flags: DIFlagArtificial | DIFlagObjectPointer)
!534 = !DIDerivedType(tag: DW_TAG_const_type, baseType: !515)
!535 = !DISubprogram(name: "ap_int_base", scope: !515, file: !322, line: 214, type: !536, isLocal: false, isDefinition: false, scopeLine: 214, flags: DIFlagPrototyped, isOptimized: false)
!536 = !DISubroutineType(types: !537)
!537 = !{null, !538}
!538 = !DIDerivedType(tag: DW_TAG_pointer_type, baseType: !515, size: 64, flags: DIFlagArtificial | DIFlagObjectPointer)
!539 = !DISubprogram(name: "ap_int_base", scope: !515, file: !322, line: 247, type: !540, isLocal: false, isDefinition: false, scopeLine: 247, flags: DIFlagPrototyped, isOptimized: false)
!540 = !DISubroutineType(types: !541)
!541 = !{null, !538, !97}
!542 = !DISubprogram(name: "ap_int_base", scope: !515, file: !322, line: 248, type: !543, isLocal: false, isDefinition: false, scopeLine: 248, flags: DIFlagPrototyped, isOptimized: false)
!543 = !DISubroutineType(types: !544)
!544 = !{null, !538, !88}
!545 = !DISubprogram(name: "ap_int_base", scope: !515, file: !322, line: 249, type: !546, isLocal: false, isDefinition: false, scopeLine: 249, flags: DIFlagPrototyped, isOptimized: false)
!546 = !DISubroutineType(types: !547)
!547 = !{null, !538, !104}
!548 = !DISubprogram(name: "ap_int_base", scope: !515, file: !322, line: 250, type: !549, isLocal: false, isDefinition: false, scopeLine: 250, flags: DIFlagPrototyped, isOptimized: false)
!549 = !DISubroutineType(types: !550)
!550 = !{null, !538, !108}
!551 = !DISubprogram(name: "ap_int_base", scope: !515, file: !322, line: 251, type: !552, isLocal: false, isDefinition: false, scopeLine: 251, flags: DIFlagPrototyped, isOptimized: false)
!552 = !DISubroutineType(types: !553)
!553 = !{null, !538, !113}
!554 = !DISubprogram(name: "ap_int_base", scope: !515, file: !322, line: 252, type: !555, isLocal: false, isDefinition: false, scopeLine: 252, flags: DIFlagPrototyped, isOptimized: false)
!555 = !DISubroutineType(types: !556)
!556 = !{null, !538, !117}
!557 = !DISubprogram(name: "ap_int_base", scope: !515, file: !322, line: 253, type: !558, isLocal: false, isDefinition: false, scopeLine: 253, flags: DIFlagPrototyped, isOptimized: false)
!558 = !DISubroutineType(types: !559)
!559 = !{null, !538, !45}
!560 = !DISubprogram(name: "ap_int_base", scope: !515, file: !322, line: 254, type: !561, isLocal: false, isDefinition: false, scopeLine: 254, flags: DIFlagPrototyped, isOptimized: false)
!561 = !DISubroutineType(types: !562)
!562 = !{null, !538, !125}
!563 = !DISubprogram(name: "ap_int_base", scope: !515, file: !322, line: 255, type: !564, isLocal: false, isDefinition: false, scopeLine: 255, flags: DIFlagPrototyped, isOptimized: false)
!564 = !DISubroutineType(types: !565)
!565 = !{null, !538, !130}
!566 = !DISubprogram(name: "ap_int_base", scope: !515, file: !322, line: 256, type: !567, isLocal: false, isDefinition: false, scopeLine: 256, flags: DIFlagPrototyped, isOptimized: false)
!567 = !DISubroutineType(types: !568)
!568 = !{null, !538, !135}
!569 = !DISubprogram(name: "ap_int_base", scope: !515, file: !322, line: 257, type: !570, isLocal: false, isDefinition: false, scopeLine: 257, flags: DIFlagPrototyped, isOptimized: false)
!570 = !DISubroutineType(types: !571)
!571 = !{null, !538, !140}
!572 = !DISubprogram(name: "ap_int_base", scope: !515, file: !322, line: 258, type: !573, isLocal: false, isDefinition: false, scopeLine: 258, flags: DIFlagPrototyped, isOptimized: false)
!573 = !DISubroutineType(types: !574)
!574 = !{null, !538, !146}
!575 = !DISubprogram(name: "ap_int_base", scope: !515, file: !322, line: 263, type: !576, isLocal: false, isDefinition: false, scopeLine: 263, flags: DIFlagPrototyped, isOptimized: false)
!576 = !DISubroutineType(types: !577)
!577 = !{null, !538, !160}
!578 = !DISubprogram(name: "ap_int_base", scope: !515, file: !322, line: 269, type: !579, isLocal: false, isDefinition: false, scopeLine: 269, flags: DIFlagPrototyped, isOptimized: false)
!579 = !DISubroutineType(types: !580)
!580 = !{null, !538, !156}
!581 = !DISubprogram(name: "ap_int_base", scope: !515, file: !322, line: 328, type: !582, isLocal: false, isDefinition: false, scopeLine: 328, flags: DIFlagPrototyped, isOptimized: false)
!582 = !DISubroutineType(types: !583)
!583 = !{null, !538, !152}
!584 = !DISubprogram(name: "ap_int_base", scope: !515, file: !322, line: 424, type: !585, isLocal: false, isDefinition: false, scopeLine: 424, flags: DIFlagPrototyped, isOptimized: false)
!585 = !DISubroutineType(types: !586)
!586 = !{null, !538, !87}
!587 = !DISubprogram(name: "ap_int_base", scope: !515, file: !322, line: 430, type: !588, isLocal: false, isDefinition: false, scopeLine: 430, flags: DIFlagPrototyped, isOptimized: false)
!588 = !DISubroutineType(types: !589)
!589 = !{null, !538, !87, !93}
!590 = !DISubprogram(name: "read", linkageName: "_ZNV11ap_int_baseILi7ELb1EE4readEv", scope: !515, file: !322, line: 452, type: !591, isLocal: false, isDefinition: false, scopeLine: 452, flags: DIFlagPrototyped, isOptimized: false)
!591 = !DISubroutineType(types: !592)
!592 = !{!515, !593}
!593 = !DIDerivedType(tag: DW_TAG_pointer_type, baseType: !594, size: 64, flags: DIFlagArtificial | DIFlagObjectPointer)
!594 = !DIDerivedType(tag: DW_TAG_volatile_type, baseType: !515)
!595 = !DISubprogram(name: "write", linkageName: "_ZNV11ap_int_baseILi7ELb1EE5writeERKS0_", scope: !515, file: !322, line: 459, type: !596, isLocal: false, isDefinition: false, scopeLine: 459, flags: DIFlagPrototyped, isOptimized: false)
!596 = !DISubroutineType(types: !597)
!597 = !{null, !593, !598}
!598 = !DIDerivedType(tag: DW_TAG_reference_type, baseType: !534, size: 64)
!599 = !DISubprogram(name: "operator=", linkageName: "_ZNV11ap_int_baseILi7ELb1EEaSERVKS0_", scope: !515, file: !322, line: 471, type: !600, isLocal: false, isDefinition: false, scopeLine: 471, flags: DIFlagPrototyped, isOptimized: false)
!600 = !DISubroutineType(types: !601)
!601 = !{null, !593, !602}
!602 = !DIDerivedType(tag: DW_TAG_reference_type, baseType: !603, size: 64)
!603 = !DIDerivedType(tag: DW_TAG_const_type, baseType: !594)
!604 = !DISubprogram(name: "operator=", linkageName: "_ZNV11ap_int_baseILi7ELb1EEaSERKS0_", scope: !515, file: !322, line: 481, type: !596, isLocal: false, isDefinition: false, scopeLine: 481, flags: DIFlagPrototyped, isOptimized: false)
!605 = !DISubprogram(name: "operator=", linkageName: "_ZN11ap_int_baseILi7ELb1EEaSERVKS0_", scope: !515, file: !322, line: 498, type: !606, isLocal: false, isDefinition: false, scopeLine: 498, flags: DIFlagPrototyped, isOptimized: false)
!606 = !DISubroutineType(types: !607)
!607 = !{!608, !538, !602}
!608 = !DIDerivedType(tag: DW_TAG_reference_type, baseType: !515, size: 64)
!609 = !DISubprogram(name: "operator=", linkageName: "_ZN11ap_int_baseILi7ELb1EEaSERKS0_", scope: !515, file: !322, line: 503, type: !610, isLocal: false, isDefinition: false, scopeLine: 503, flags: DIFlagPrototyped, isOptimized: false)
!610 = !DISubroutineType(types: !611)
!611 = !{!608, !538, !598}
!612 = !DISubprogram(name: "operator=", linkageName: "_ZN11ap_int_baseILi7ELb1EEaSEb", scope: !515, file: !322, line: 511, type: !613, isLocal: false, isDefinition: false, scopeLine: 511, flags: DIFlagPrototyped, isOptimized: false)
!613 = !DISubroutineType(types: !614)
!614 = !{!608, !538, !43}
!615 = !DISubprogram(name: "operator=", linkageName: "_ZN11ap_int_baseILi7ELb1EEaSEc", scope: !515, file: !322, line: 512, type: !616, isLocal: false, isDefinition: false, scopeLine: 512, flags: DIFlagPrototyped, isOptimized: false)
!616 = !DISubroutineType(types: !617)
!617 = !{!608, !538, !89}
!618 = !DISubprogram(name: "operator=", linkageName: "_ZN11ap_int_baseILi7ELb1EEaSEa", scope: !515, file: !322, line: 513, type: !619, isLocal: false, isDefinition: false, scopeLine: 513, flags: DIFlagPrototyped, isOptimized: false)
!619 = !DISubroutineType(types: !620)
!620 = !{!608, !538, !93}
!621 = !DISubprogram(name: "operator=", linkageName: "_ZN11ap_int_baseILi7ELb1EEaSEh", scope: !515, file: !322, line: 514, type: !622, isLocal: false, isDefinition: false, scopeLine: 514, flags: DIFlagPrototyped, isOptimized: false)
!622 = !DISubroutineType(types: !623)
!623 = !{!608, !538, !109}
!624 = !DISubprogram(name: "operator=", linkageName: "_ZN11ap_int_baseILi7ELb1EEaSEs", scope: !515, file: !322, line: 515, type: !625, isLocal: false, isDefinition: false, scopeLine: 515, flags: DIFlagPrototyped, isOptimized: false)
!625 = !DISubroutineType(types: !626)
!626 = !{!608, !538, !35}
!627 = !DISubprogram(name: "operator=", linkageName: "_ZN11ap_int_baseILi7ELb1EEaSEt", scope: !515, file: !322, line: 516, type: !628, isLocal: false, isDefinition: false, scopeLine: 516, flags: DIFlagPrototyped, isOptimized: false)
!628 = !DISubroutineType(types: !629)
!629 = !{!608, !538, !118}
!630 = !DISubprogram(name: "operator=", linkageName: "_ZN11ap_int_baseILi7ELb1EEaSEi", scope: !515, file: !322, line: 517, type: !631, isLocal: false, isDefinition: false, scopeLine: 517, flags: DIFlagPrototyped, isOptimized: false)
!631 = !DISubroutineType(types: !632)
!632 = !{!608, !538, !17}
!633 = !DISubprogram(name: "operator=", linkageName: "_ZN11ap_int_baseILi7ELb1EEaSEj", scope: !515, file: !322, line: 518, type: !634, isLocal: false, isDefinition: false, scopeLine: 518, flags: DIFlagPrototyped, isOptimized: false)
!634 = !DISubroutineType(types: !635)
!635 = !{!608, !538, !126}
!636 = !DISubprogram(name: "operator=", linkageName: "_ZN11ap_int_baseILi7ELb1EEaSEl", scope: !515, file: !322, line: 519, type: !637, isLocal: false, isDefinition: false, scopeLine: 519, flags: DIFlagPrototyped, isOptimized: false)
!637 = !DISubroutineType(types: !638)
!638 = !{!608, !538, !131}
!639 = !DISubprogram(name: "operator=", linkageName: "_ZN11ap_int_baseILi7ELb1EEaSEm", scope: !515, file: !322, line: 520, type: !640, isLocal: false, isDefinition: false, scopeLine: 520, flags: DIFlagPrototyped, isOptimized: false)
!640 = !DISubroutineType(types: !641)
!641 = !{!608, !538, !136}
!642 = !DISubprogram(name: "operator=", linkageName: "_ZN11ap_int_baseILi7ELb1EEaSEx", scope: !515, file: !322, line: 521, type: !643, isLocal: false, isDefinition: false, scopeLine: 521, flags: DIFlagPrototyped, isOptimized: false)
!643 = !DISubroutineType(types: !644)
!644 = !{!608, !538, !141}
!645 = !DISubprogram(name: "operator=", linkageName: "_ZN11ap_int_baseILi7ELb1EEaSEy", scope: !515, file: !322, line: 522, type: !646, isLocal: false, isDefinition: false, scopeLine: 522, flags: DIFlagPrototyped, isOptimized: false)
!646 = !DISubroutineType(types: !647)
!647 = !{!608, !538, !147}
!648 = !DISubprogram(name: "operator long long", linkageName: "_ZNK11ap_int_baseILi7ELb1EEcvxEv", scope: !515, file: !322, line: 573, type: !649, isLocal: false, isDefinition: false, scopeLine: 573, flags: DIFlagPrototyped, isOptimized: false)
!649 = !DISubroutineType(types: !650)
!650 = !{!651, !533}
!651 = !DIDerivedType(tag: DW_TAG_typedef, name: "RetType", scope: !515, file: !322, line: 167, baseType: !652)
!652 = !DIDerivedType(tag: DW_TAG_typedef, name: "Type", scope: !321, file: !322, line: 85, baseType: !141)
!653 = !DISubprogram(name: "to_bool", linkageName: "_ZNK11ap_int_baseILi7ELb1EE7to_boolEv", scope: !515, file: !322, line: 578, type: !654, isLocal: false, isDefinition: false, scopeLine: 578, flags: DIFlagPrototyped, isOptimized: false)
!654 = !DISubroutineType(types: !655)
!655 = !{!43, !533}
!656 = !DISubprogram(name: "to_char", linkageName: "_ZNK11ap_int_baseILi7ELb1EE7to_charEv", scope: !515, file: !322, line: 579, type: !657, isLocal: false, isDefinition: false, scopeLine: 579, flags: DIFlagPrototyped, isOptimized: false)
!657 = !DISubroutineType(types: !658)
!658 = !{!89, !533}
!659 = !DISubprogram(name: "to_schar", linkageName: "_ZNK11ap_int_baseILi7ELb1EE8to_scharEv", scope: !515, file: !322, line: 580, type: !660, isLocal: false, isDefinition: false, scopeLine: 580, flags: DIFlagPrototyped, isOptimized: false)
!660 = !DISubroutineType(types: !661)
!661 = !{!93, !533}
!662 = !DISubprogram(name: "to_uchar", linkageName: "_ZNK11ap_int_baseILi7ELb1EE8to_ucharEv", scope: !515, file: !322, line: 581, type: !663, isLocal: false, isDefinition: false, scopeLine: 581, flags: DIFlagPrototyped, isOptimized: false)
!663 = !DISubroutineType(types: !664)
!664 = !{!109, !533}
!665 = !DISubprogram(name: "to_short", linkageName: "_ZNK11ap_int_baseILi7ELb1EE8to_shortEv", scope: !515, file: !322, line: 582, type: !666, isLocal: false, isDefinition: false, scopeLine: 582, flags: DIFlagPrototyped, isOptimized: false)
!666 = !DISubroutineType(types: !667)
!667 = !{!35, !533}
!668 = !DISubprogram(name: "to_ushort", linkageName: "_ZNK11ap_int_baseILi7ELb1EE9to_ushortEv", scope: !515, file: !322, line: 583, type: !669, isLocal: false, isDefinition: false, scopeLine: 583, flags: DIFlagPrototyped, isOptimized: false)
!669 = !DISubroutineType(types: !670)
!670 = !{!118, !533}
!671 = !DISubprogram(name: "to_int", linkageName: "_ZNK11ap_int_baseILi7ELb1EE6to_intEv", scope: !515, file: !322, line: 584, type: !531, isLocal: false, isDefinition: false, scopeLine: 584, flags: DIFlagPrototyped, isOptimized: false)
!672 = !DISubprogram(name: "to_uint", linkageName: "_ZNK11ap_int_baseILi7ELb1EE7to_uintEv", scope: !515, file: !322, line: 585, type: !673, isLocal: false, isDefinition: false, scopeLine: 585, flags: DIFlagPrototyped, isOptimized: false)
!673 = !DISubroutineType(types: !674)
!674 = !{!126, !533}
!675 = !DISubprogram(name: "to_long", linkageName: "_ZNK11ap_int_baseILi7ELb1EE7to_longEv", scope: !515, file: !322, line: 586, type: !676, isLocal: false, isDefinition: false, scopeLine: 586, flags: DIFlagPrototyped, isOptimized: false)
!676 = !DISubroutineType(types: !677)
!677 = !{!131, !533}
!678 = !DISubprogram(name: "to_ulong", linkageName: "_ZNK11ap_int_baseILi7ELb1EE8to_ulongEv", scope: !515, file: !322, line: 587, type: !679, isLocal: false, isDefinition: false, scopeLine: 587, flags: DIFlagPrototyped, isOptimized: false)
!679 = !DISubroutineType(types: !680)
!680 = !{!136, !533}
!681 = !DISubprogram(name: "to_int64", linkageName: "_ZNK11ap_int_baseILi7ELb1EE8to_int64Ev", scope: !515, file: !322, line: 588, type: !682, isLocal: false, isDefinition: false, scopeLine: 588, flags: DIFlagPrototyped, isOptimized: false)
!682 = !DISubroutineType(types: !683)
!683 = !{!141, !533}
!684 = !DISubprogram(name: "to_uint64", linkageName: "_ZNK11ap_int_baseILi7ELb1EE9to_uint64Ev", scope: !515, file: !322, line: 589, type: !685, isLocal: false, isDefinition: false, scopeLine: 589, flags: DIFlagPrototyped, isOptimized: false)
!685 = !DISubroutineType(types: !686)
!686 = !{!147, !533}
!687 = !DISubprogram(name: "to_half", linkageName: "_ZNK11ap_int_baseILi7ELb1EE7to_halfEv", scope: !515, file: !322, line: 590, type: !688, isLocal: false, isDefinition: false, scopeLine: 590, flags: DIFlagPrototyped, isOptimized: false)
!688 = !DISubroutineType(types: !689)
!689 = !{!160, !533}
!690 = !DISubprogram(name: "to_float", linkageName: "_ZNK11ap_int_baseILi7ELb1EE8to_floatEv", scope: !515, file: !322, line: 591, type: !691, isLocal: false, isDefinition: false, scopeLine: 591, flags: DIFlagPrototyped, isOptimized: false)
!691 = !DISubroutineType(types: !692)
!692 = !{!156, !533}
!693 = !DISubprogram(name: "to_double", linkageName: "_ZNK11ap_int_baseILi7ELb1EE9to_doubleEv", scope: !515, file: !322, line: 592, type: !694, isLocal: false, isDefinition: false, scopeLine: 592, flags: DIFlagPrototyped, isOptimized: false)
!694 = !DISubroutineType(types: !695)
!695 = !{!152, !533}
!696 = !DISubprogram(name: "length", linkageName: "_ZNVK11ap_int_baseILi7ELb1EE6lengthEv", scope: !515, file: !322, line: 616, type: !697, isLocal: false, isDefinition: false, scopeLine: 616, flags: DIFlagPrototyped, isOptimized: false)
!697 = !DISubroutineType(types: !698)
!698 = !{!17, !699}
!699 = !DIDerivedType(tag: DW_TAG_pointer_type, baseType: !603, size: 64, flags: DIFlagArtificial | DIFlagObjectPointer)
!700 = !DISubprogram(name: "iszero", linkageName: "_ZNK11ap_int_baseILi7ELb1EE6iszeroEv", scope: !515, file: !322, line: 619, type: !654, isLocal: false, isDefinition: false, scopeLine: 619, flags: DIFlagPrototyped, isOptimized: false)
!701 = !DISubprogram(name: "is_zero", linkageName: "_ZNK11ap_int_baseILi7ELb1EE7is_zeroEv", scope: !515, file: !322, line: 622, type: !654, isLocal: false, isDefinition: false, scopeLine: 622, flags: DIFlagPrototyped, isOptimized: false)
!702 = !DISubprogram(name: "sign", linkageName: "_ZNK11ap_int_baseILi7ELb1EE4signEv", scope: !515, file: !322, line: 625, type: !654, isLocal: false, isDefinition: false, scopeLine: 625, flags: DIFlagPrototyped, isOptimized: false)
!703 = !DISubprogram(name: "clear", linkageName: "_ZN11ap_int_baseILi7ELb1EE5clearEi", scope: !515, file: !322, line: 634, type: !704, isLocal: false, isDefinition: false, scopeLine: 634, flags: DIFlagPrototyped, isOptimized: false)
!704 = !DISubroutineType(types: !705)
!705 = !{null, !538, !17}
!706 = !DISubprogram(name: "invert", linkageName: "_ZN11ap_int_baseILi7ELb1EE6invertEi", scope: !515, file: !322, line: 640, type: !704, isLocal: false, isDefinition: false, scopeLine: 640, flags: DIFlagPrototyped, isOptimized: false)
!707 = !DISubprogram(name: "test", linkageName: "_ZNK11ap_int_baseILi7ELb1EE4testEi", scope: !515, file: !322, line: 649, type: !708, isLocal: false, isDefinition: false, scopeLine: 649, flags: DIFlagPrototyped, isOptimized: false)
!708 = !DISubroutineType(types: !709)
!709 = !{!43, !533, !17}
!710 = !DISubprogram(name: "get", linkageName: "_ZN11ap_int_baseILi7ELb1EE3getEv", scope: !515, file: !322, line: 655, type: !711, isLocal: false, isDefinition: false, scopeLine: 655, flags: DIFlagPrototyped, isOptimized: false)
!711 = !DISubroutineType(types: !712)
!712 = !{!608, !538}
!713 = !DISubprogram(name: "set", linkageName: "_ZN11ap_int_baseILi7ELb1EE3setEi", scope: !515, file: !322, line: 658, type: !704, isLocal: false, isDefinition: false, scopeLine: 658, flags: DIFlagPrototyped, isOptimized: false)
!714 = !DISubprogram(name: "set", linkageName: "_ZN11ap_int_baseILi7ELb1EE3setEib", scope: !515, file: !322, line: 664, type: !715, isLocal: false, isDefinition: false, scopeLine: 664, flags: DIFlagPrototyped, isOptimized: false)
!715 = !DISubroutineType(types: !716)
!716 = !{null, !538, !17, !43}
!717 = !DISubprogram(name: "lrotate", linkageName: "_ZN11ap_int_baseILi7ELb1EE7lrotateEi", scope: !515, file: !322, line: 671, type: !631, isLocal: false, isDefinition: false, scopeLine: 671, flags: DIFlagPrototyped, isOptimized: false)
!718 = !DISubprogram(name: "rrotate", linkageName: "_ZN11ap_int_baseILi7ELb1EE7rrotateEi", scope: !515, file: !322, line: 686, type: !631, isLocal: false, isDefinition: false, scopeLine: 686, flags: DIFlagPrototyped, isOptimized: false)
!719 = !DISubprogram(name: "reverse", linkageName: "_ZN11ap_int_baseILi7ELb1EE7reverseEv", scope: !515, file: !322, line: 701, type: !711, isLocal: false, isDefinition: false, scopeLine: 701, flags: DIFlagPrototyped, isOptimized: false)
!720 = !DISubprogram(name: "set_bit", linkageName: "_ZN11ap_int_baseILi7ELb1EE7set_bitEib", scope: !515, file: !322, line: 707, type: !715, isLocal: false, isDefinition: false, scopeLine: 707, flags: DIFlagPrototyped, isOptimized: false)
!721 = !DISubprogram(name: "get_bit", linkageName: "_ZNK11ap_int_baseILi7ELb1EE7get_bitEi", scope: !515, file: !322, line: 712, type: !708, isLocal: false, isDefinition: false, scopeLine: 712, flags: DIFlagPrototyped, isOptimized: false)
!722 = !DISubprogram(name: "b_not", linkageName: "_ZN11ap_int_baseILi7ELb1EE5b_notEv", scope: !515, file: !322, line: 717, type: !536, isLocal: false, isDefinition: false, scopeLine: 717, flags: DIFlagPrototyped, isOptimized: false)
!723 = !DISubprogram(name: "checkOverflowCsim", linkageName: "_ZNK11ap_int_baseILi7ELb1EE17checkOverflowCsimEibb", scope: !515, file: !322, line: 791, type: !724, isLocal: false, isDefinition: false, scopeLine: 791, flags: DIFlagPrototyped, isOptimized: false)
!724 = !DISubroutineType(types: !725)
!725 = !{!43, !533, !17, !43, !43}
!726 = !DISubprogram(name: "operator++", linkageName: "_ZN11ap_int_baseILi7ELb1EEppEv", scope: !515, file: !322, line: 895, type: !711, isLocal: false, isDefinition: false, scopeLine: 895, flags: DIFlagPrototyped, isOptimized: false)
!727 = !DISubprogram(name: "operator--", linkageName: "_ZN11ap_int_baseILi7ELb1EEmmEv", scope: !515, file: !322, line: 899, type: !711, isLocal: false, isDefinition: false, scopeLine: 899, flags: DIFlagPrototyped, isOptimized: false)
!728 = !DISubprogram(name: "operator++", linkageName: "_ZN11ap_int_baseILi7ELb1EEppEi", scope: !515, file: !322, line: 907, type: !729, isLocal: false, isDefinition: false, scopeLine: 907, flags: DIFlagPrototyped, isOptimized: false)
!729 = !DISubroutineType(types: !730)
!730 = !{!731, !538, !17}
!731 = !DIDerivedType(tag: DW_TAG_const_type, baseType: !732)
!732 = !DIDerivedType(tag: DW_TAG_typedef, name: "arg1", scope: !733, file: !322, line: 206, baseType: !734)
!733 = distinct !DICompositeType(tag: DW_TAG_structure_type, name: "RType<7, true>", scope: !515, file: !322, line: 173, size: 8, flags: DIFlagTypePassByValue, elements: !4, templateParams: !509, identifier: "_ZTSN11ap_int_baseILi7ELb1EE5RTypeILi7ELb1EEE")
!734 = !DIDerivedType(tag: DW_TAG_typedef, name: "type", scope: !508, file: !322, line: 142, baseType: !511)
!735 = !DISubprogram(name: "operator--", linkageName: "_ZN11ap_int_baseILi7ELb1EEmmEi", scope: !515, file: !322, line: 912, type: !729, isLocal: false, isDefinition: false, scopeLine: 912, flags: DIFlagPrototyped, isOptimized: false)
!736 = !DISubprogram(name: "operator+", linkageName: "_ZNK11ap_int_baseILi7ELb1EEpsEv", scope: !515, file: !322, line: 921, type: !737, isLocal: false, isDefinition: false, scopeLine: 921, flags: DIFlagPrototyped, isOptimized: false)
!737 = !DISubroutineType(types: !738)
!738 = !{!732, !533}
!739 = !DISubprogram(name: "operator-", linkageName: "_ZNK11ap_int_baseILi7ELb1EEngEv", scope: !515, file: !322, line: 924, type: !740, isLocal: false, isDefinition: false, scopeLine: 924, flags: DIFlagPrototyped, isOptimized: false)
!740 = !DISubroutineType(types: !741)
!741 = !{!742, !533}
!742 = !DIDerivedType(tag: DW_TAG_typedef, name: "minus", scope: !743, file: !322, line: 202, baseType: !744)
!743 = distinct !DICompositeType(tag: DW_TAG_structure_type, name: "RType<1, false>", scope: !515, file: !322, line: 173, size: 8, flags: DIFlagTypePassByValue, elements: !4, templateParams: !504, identifier: "_ZTSN11ap_int_baseILi7ELb1EE5RTypeILi1ELb0EEE")
!744 = !DIDerivedType(tag: DW_TAG_typedef, name: "type", scope: !745, file: !322, line: 142, baseType: !748)
!745 = distinct !DICompositeType(tag: DW_TAG_structure_type, name: "_ap_int_factory<8, true>", file: !322, line: 142, size: 8, flags: DIFlagTypePassByValue, elements: !4, templateParams: !746, identifier: "_ZTS15_ap_int_factoryILi8ELb1EE")
!746 = !{!747, !408}
!747 = !DITemplateValueParameter(name: "_AP_W2", type: !17, value: i32 8)
!748 = distinct !DICompositeType(tag: DW_TAG_structure_type, name: "ap_int<8>", file: !512, line: 63, size: 8, flags: DIFlagTypePassByValue, elements: !749, templateParams: !4681, identifier: "_ZTS6ap_intILi8EE")
!749 = !{!750, !4604, !4608, !4611, !4614, !4617, !4620, !4623, !4626, !4629, !4632, !4635, !4638, !4641, !4644, !4647, !4650, !4653, !4656, !4659, !4662, !4668, !4674, !4678}
!750 = !DIDerivedType(tag: DW_TAG_inheritance, scope: !748, baseType: !751)
!751 = distinct !DICompositeType(tag: DW_TAG_structure_type, name: "ap_int_base<8, true>", file: !322, line: 147, size: 8, flags: DIFlagTypePassByValue, elements: !752, templateParams: !4589, identifier: "_ZTS11ap_int_baseILi8ELb1EE")
!752 = !{!753, !761, !762, !763, !768, !772, !775, !778, !781, !784, !787, !790, !793, !796, !799, !802, !805, !808, !811, !814, !817, !820, !823, !828, !832, !837, !838, !842, !845, !848, !851, !854, !857, !860, !863, !866, !869, !872, !875, !878, !881, !885, !888, !891, !894, !897, !900, !903, !904, !907, !910, !913, !916, !919, !922, !925, !928, !932, !933, !934, !935, !938, !939, !942, !945, !946, !949, !950, !951, !952, !953, !954, !955, !958, !959, !960, !966, !967, !970, !4483, !4484, !4485, !4489, !4492, !4495, !4498, !4499, !4500, !4591, !4592, !4593, !4594, !4595, !4596, !4597, !4598, !4599, !4600, !4601}
!753 = !DIDerivedType(tag: DW_TAG_inheritance, scope: !751, baseType: !754)
!754 = distinct !DICompositeType(tag: DW_TAG_structure_type, name: "ssdm_int<8, true>", file: !32, line: 512, size: 8, flags: DIFlagTypePassByValue, elements: !755, templateParams: !323, identifier: "_ZTS8ssdm_intILi8ELb1EE")
!755 = !{!756, !757}
!756 = !DIDerivedType(tag: DW_TAG_member, name: "V", scope: !754, file: !32, line: 513, baseType: !93, size: 8)
!757 = !DISubprogram(name: "ssdm_int", scope: !754, file: !32, line: 514, type: !758, isLocal: false, isDefinition: false, scopeLine: 514, flags: DIFlagPrototyped, isOptimized: false)
!758 = !DISubroutineType(types: !759)
!759 = !{null, !760}
!760 = !DIDerivedType(tag: DW_TAG_pointer_type, baseType: !754, size: 64, flags: DIFlagArtificial | DIFlagObjectPointer)
!761 = !DIDerivedType(tag: DW_TAG_member, name: "width", scope: !751, file: !322, line: 169, baseType: !45, flags: DIFlagStaticMember, extraData: i32 8)
!762 = !DIDerivedType(tag: DW_TAG_member, name: "sign_flag", scope: !751, file: !322, line: 170, baseType: !97, flags: DIFlagStaticMember, extraData: i1 true)
!763 = !DISubprogram(name: "countLeadingOnes", linkageName: "_ZNK11ap_int_baseILi8ELb1EE16countLeadingOnesEv", scope: !751, file: !322, line: 149, type: !764, isLocal: false, isDefinition: false, scopeLine: 149, flags: DIFlagPrivate | DIFlagPrototyped, isOptimized: false)
!764 = !DISubroutineType(types: !765)
!765 = !{!17, !766}
!766 = !DIDerivedType(tag: DW_TAG_pointer_type, baseType: !767, size: 64, flags: DIFlagArtificial | DIFlagObjectPointer)
!767 = !DIDerivedType(tag: DW_TAG_const_type, baseType: !751)
!768 = !DISubprogram(name: "ap_int_base", scope: !751, file: !322, line: 214, type: !769, isLocal: false, isDefinition: false, scopeLine: 214, flags: DIFlagPrototyped, isOptimized: false)
!769 = !DISubroutineType(types: !770)
!770 = !{null, !771}
!771 = !DIDerivedType(tag: DW_TAG_pointer_type, baseType: !751, size: 64, flags: DIFlagArtificial | DIFlagObjectPointer)
!772 = !DISubprogram(name: "ap_int_base", scope: !751, file: !322, line: 247, type: !773, isLocal: false, isDefinition: false, scopeLine: 247, flags: DIFlagPrototyped, isOptimized: false)
!773 = !DISubroutineType(types: !774)
!774 = !{null, !771, !97}
!775 = !DISubprogram(name: "ap_int_base", scope: !751, file: !322, line: 248, type: !776, isLocal: false, isDefinition: false, scopeLine: 248, flags: DIFlagPrototyped, isOptimized: false)
!776 = !DISubroutineType(types: !777)
!777 = !{null, !771, !88}
!778 = !DISubprogram(name: "ap_int_base", scope: !751, file: !322, line: 249, type: !779, isLocal: false, isDefinition: false, scopeLine: 249, flags: DIFlagPrototyped, isOptimized: false)
!779 = !DISubroutineType(types: !780)
!780 = !{null, !771, !104}
!781 = !DISubprogram(name: "ap_int_base", scope: !751, file: !322, line: 250, type: !782, isLocal: false, isDefinition: false, scopeLine: 250, flags: DIFlagPrototyped, isOptimized: false)
!782 = !DISubroutineType(types: !783)
!783 = !{null, !771, !108}
!784 = !DISubprogram(name: "ap_int_base", scope: !751, file: !322, line: 251, type: !785, isLocal: false, isDefinition: false, scopeLine: 251, flags: DIFlagPrototyped, isOptimized: false)
!785 = !DISubroutineType(types: !786)
!786 = !{null, !771, !113}
!787 = !DISubprogram(name: "ap_int_base", scope: !751, file: !322, line: 252, type: !788, isLocal: false, isDefinition: false, scopeLine: 252, flags: DIFlagPrototyped, isOptimized: false)
!788 = !DISubroutineType(types: !789)
!789 = !{null, !771, !117}
!790 = !DISubprogram(name: "ap_int_base", scope: !751, file: !322, line: 253, type: !791, isLocal: false, isDefinition: false, scopeLine: 253, flags: DIFlagPrototyped, isOptimized: false)
!791 = !DISubroutineType(types: !792)
!792 = !{null, !771, !45}
!793 = !DISubprogram(name: "ap_int_base", scope: !751, file: !322, line: 254, type: !794, isLocal: false, isDefinition: false, scopeLine: 254, flags: DIFlagPrototyped, isOptimized: false)
!794 = !DISubroutineType(types: !795)
!795 = !{null, !771, !125}
!796 = !DISubprogram(name: "ap_int_base", scope: !751, file: !322, line: 255, type: !797, isLocal: false, isDefinition: false, scopeLine: 255, flags: DIFlagPrototyped, isOptimized: false)
!797 = !DISubroutineType(types: !798)
!798 = !{null, !771, !130}
!799 = !DISubprogram(name: "ap_int_base", scope: !751, file: !322, line: 256, type: !800, isLocal: false, isDefinition: false, scopeLine: 256, flags: DIFlagPrototyped, isOptimized: false)
!800 = !DISubroutineType(types: !801)
!801 = !{null, !771, !135}
!802 = !DISubprogram(name: "ap_int_base", scope: !751, file: !322, line: 257, type: !803, isLocal: false, isDefinition: false, scopeLine: 257, flags: DIFlagPrototyped, isOptimized: false)
!803 = !DISubroutineType(types: !804)
!804 = !{null, !771, !140}
!805 = !DISubprogram(name: "ap_int_base", scope: !751, file: !322, line: 258, type: !806, isLocal: false, isDefinition: false, scopeLine: 258, flags: DIFlagPrototyped, isOptimized: false)
!806 = !DISubroutineType(types: !807)
!807 = !{null, !771, !146}
!808 = !DISubprogram(name: "ap_int_base", scope: !751, file: !322, line: 263, type: !809, isLocal: false, isDefinition: false, scopeLine: 263, flags: DIFlagPrototyped, isOptimized: false)
!809 = !DISubroutineType(types: !810)
!810 = !{null, !771, !160}
!811 = !DISubprogram(name: "ap_int_base", scope: !751, file: !322, line: 269, type: !812, isLocal: false, isDefinition: false, scopeLine: 269, flags: DIFlagPrototyped, isOptimized: false)
!812 = !DISubroutineType(types: !813)
!813 = !{null, !771, !156}
!814 = !DISubprogram(name: "ap_int_base", scope: !751, file: !322, line: 328, type: !815, isLocal: false, isDefinition: false, scopeLine: 328, flags: DIFlagPrototyped, isOptimized: false)
!815 = !DISubroutineType(types: !816)
!816 = !{null, !771, !152}
!817 = !DISubprogram(name: "ap_int_base", scope: !751, file: !322, line: 424, type: !818, isLocal: false, isDefinition: false, scopeLine: 424, flags: DIFlagPrototyped, isOptimized: false)
!818 = !DISubroutineType(types: !819)
!819 = !{null, !771, !87}
!820 = !DISubprogram(name: "ap_int_base", scope: !751, file: !322, line: 430, type: !821, isLocal: false, isDefinition: false, scopeLine: 430, flags: DIFlagPrototyped, isOptimized: false)
!821 = !DISubroutineType(types: !822)
!822 = !{null, !771, !87, !93}
!823 = !DISubprogram(name: "read", linkageName: "_ZNV11ap_int_baseILi8ELb1EE4readEv", scope: !751, file: !322, line: 452, type: !824, isLocal: false, isDefinition: false, scopeLine: 452, flags: DIFlagPrototyped, isOptimized: false)
!824 = !DISubroutineType(types: !825)
!825 = !{!751, !826}
!826 = !DIDerivedType(tag: DW_TAG_pointer_type, baseType: !827, size: 64, flags: DIFlagArtificial | DIFlagObjectPointer)
!827 = !DIDerivedType(tag: DW_TAG_volatile_type, baseType: !751)
!828 = !DISubprogram(name: "write", linkageName: "_ZNV11ap_int_baseILi8ELb1EE5writeERKS0_", scope: !751, file: !322, line: 459, type: !829, isLocal: false, isDefinition: false, scopeLine: 459, flags: DIFlagPrototyped, isOptimized: false)
!829 = !DISubroutineType(types: !830)
!830 = !{null, !826, !831}
!831 = !DIDerivedType(tag: DW_TAG_reference_type, baseType: !767, size: 64)
!832 = !DISubprogram(name: "operator=", linkageName: "_ZNV11ap_int_baseILi8ELb1EEaSERVKS0_", scope: !751, file: !322, line: 471, type: !833, isLocal: false, isDefinition: false, scopeLine: 471, flags: DIFlagPrototyped, isOptimized: false)
!833 = !DISubroutineType(types: !834)
!834 = !{null, !826, !835}
!835 = !DIDerivedType(tag: DW_TAG_reference_type, baseType: !836, size: 64)
!836 = !DIDerivedType(tag: DW_TAG_const_type, baseType: !827)
!837 = !DISubprogram(name: "operator=", linkageName: "_ZNV11ap_int_baseILi8ELb1EEaSERKS0_", scope: !751, file: !322, line: 481, type: !829, isLocal: false, isDefinition: false, scopeLine: 481, flags: DIFlagPrototyped, isOptimized: false)
!838 = !DISubprogram(name: "operator=", linkageName: "_ZN11ap_int_baseILi8ELb1EEaSERVKS0_", scope: !751, file: !322, line: 498, type: !839, isLocal: false, isDefinition: false, scopeLine: 498, flags: DIFlagPrototyped, isOptimized: false)
!839 = !DISubroutineType(types: !840)
!840 = !{!841, !771, !835}
!841 = !DIDerivedType(tag: DW_TAG_reference_type, baseType: !751, size: 64)
!842 = !DISubprogram(name: "operator=", linkageName: "_ZN11ap_int_baseILi8ELb1EEaSERKS0_", scope: !751, file: !322, line: 503, type: !843, isLocal: false, isDefinition: false, scopeLine: 503, flags: DIFlagPrototyped, isOptimized: false)
!843 = !DISubroutineType(types: !844)
!844 = !{!841, !771, !831}
!845 = !DISubprogram(name: "operator=", linkageName: "_ZN11ap_int_baseILi8ELb1EEaSEb", scope: !751, file: !322, line: 511, type: !846, isLocal: false, isDefinition: false, scopeLine: 511, flags: DIFlagPrototyped, isOptimized: false)
!846 = !DISubroutineType(types: !847)
!847 = !{!841, !771, !43}
!848 = !DISubprogram(name: "operator=", linkageName: "_ZN11ap_int_baseILi8ELb1EEaSEc", scope: !751, file: !322, line: 512, type: !849, isLocal: false, isDefinition: false, scopeLine: 512, flags: DIFlagPrototyped, isOptimized: false)
!849 = !DISubroutineType(types: !850)
!850 = !{!841, !771, !89}
!851 = !DISubprogram(name: "operator=", linkageName: "_ZN11ap_int_baseILi8ELb1EEaSEa", scope: !751, file: !322, line: 513, type: !852, isLocal: false, isDefinition: false, scopeLine: 513, flags: DIFlagPrototyped, isOptimized: false)
!852 = !DISubroutineType(types: !853)
!853 = !{!841, !771, !93}
!854 = !DISubprogram(name: "operator=", linkageName: "_ZN11ap_int_baseILi8ELb1EEaSEh", scope: !751, file: !322, line: 514, type: !855, isLocal: false, isDefinition: false, scopeLine: 514, flags: DIFlagPrototyped, isOptimized: false)
!855 = !DISubroutineType(types: !856)
!856 = !{!841, !771, !109}
!857 = !DISubprogram(name: "operator=", linkageName: "_ZN11ap_int_baseILi8ELb1EEaSEs", scope: !751, file: !322, line: 515, type: !858, isLocal: false, isDefinition: false, scopeLine: 515, flags: DIFlagPrototyped, isOptimized: false)
!858 = !DISubroutineType(types: !859)
!859 = !{!841, !771, !35}
!860 = !DISubprogram(name: "operator=", linkageName: "_ZN11ap_int_baseILi8ELb1EEaSEt", scope: !751, file: !322, line: 516, type: !861, isLocal: false, isDefinition: false, scopeLine: 516, flags: DIFlagPrototyped, isOptimized: false)
!861 = !DISubroutineType(types: !862)
!862 = !{!841, !771, !118}
!863 = !DISubprogram(name: "operator=", linkageName: "_ZN11ap_int_baseILi8ELb1EEaSEi", scope: !751, file: !322, line: 517, type: !864, isLocal: false, isDefinition: false, scopeLine: 517, flags: DIFlagPrototyped, isOptimized: false)
!864 = !DISubroutineType(types: !865)
!865 = !{!841, !771, !17}
!866 = !DISubprogram(name: "operator=", linkageName: "_ZN11ap_int_baseILi8ELb1EEaSEj", scope: !751, file: !322, line: 518, type: !867, isLocal: false, isDefinition: false, scopeLine: 518, flags: DIFlagPrototyped, isOptimized: false)
!867 = !DISubroutineType(types: !868)
!868 = !{!841, !771, !126}
!869 = !DISubprogram(name: "operator=", linkageName: "_ZN11ap_int_baseILi8ELb1EEaSEl", scope: !751, file: !322, line: 519, type: !870, isLocal: false, isDefinition: false, scopeLine: 519, flags: DIFlagPrototyped, isOptimized: false)
!870 = !DISubroutineType(types: !871)
!871 = !{!841, !771, !131}
!872 = !DISubprogram(name: "operator=", linkageName: "_ZN11ap_int_baseILi8ELb1EEaSEm", scope: !751, file: !322, line: 520, type: !873, isLocal: false, isDefinition: false, scopeLine: 520, flags: DIFlagPrototyped, isOptimized: false)
!873 = !DISubroutineType(types: !874)
!874 = !{!841, !771, !136}
!875 = !DISubprogram(name: "operator=", linkageName: "_ZN11ap_int_baseILi8ELb1EEaSEx", scope: !751, file: !322, line: 521, type: !876, isLocal: false, isDefinition: false, scopeLine: 521, flags: DIFlagPrototyped, isOptimized: false)
!876 = !DISubroutineType(types: !877)
!877 = !{!841, !771, !141}
!878 = !DISubprogram(name: "operator=", linkageName: "_ZN11ap_int_baseILi8ELb1EEaSEy", scope: !751, file: !322, line: 522, type: !879, isLocal: false, isDefinition: false, scopeLine: 522, flags: DIFlagPrototyped, isOptimized: false)
!879 = !DISubroutineType(types: !880)
!880 = !{!841, !771, !147}
!881 = !DISubprogram(name: "operator long long", linkageName: "_ZNK11ap_int_baseILi8ELb1EEcvxEv", scope: !751, file: !322, line: 573, type: !882, isLocal: false, isDefinition: false, scopeLine: 573, flags: DIFlagPrototyped, isOptimized: false)
!882 = !DISubroutineType(types: !883)
!883 = !{!884, !766}
!884 = !DIDerivedType(tag: DW_TAG_typedef, name: "RetType", scope: !751, file: !322, line: 167, baseType: !652)
!885 = !DISubprogram(name: "to_bool", linkageName: "_ZNK11ap_int_baseILi8ELb1EE7to_boolEv", scope: !751, file: !322, line: 578, type: !886, isLocal: false, isDefinition: false, scopeLine: 578, flags: DIFlagPrototyped, isOptimized: false)
!886 = !DISubroutineType(types: !887)
!887 = !{!43, !766}
!888 = !DISubprogram(name: "to_char", linkageName: "_ZNK11ap_int_baseILi8ELb1EE7to_charEv", scope: !751, file: !322, line: 579, type: !889, isLocal: false, isDefinition: false, scopeLine: 579, flags: DIFlagPrototyped, isOptimized: false)
!889 = !DISubroutineType(types: !890)
!890 = !{!89, !766}
!891 = !DISubprogram(name: "to_schar", linkageName: "_ZNK11ap_int_baseILi8ELb1EE8to_scharEv", scope: !751, file: !322, line: 580, type: !892, isLocal: false, isDefinition: false, scopeLine: 580, flags: DIFlagPrototyped, isOptimized: false)
!892 = !DISubroutineType(types: !893)
!893 = !{!93, !766}
!894 = !DISubprogram(name: "to_uchar", linkageName: "_ZNK11ap_int_baseILi8ELb1EE8to_ucharEv", scope: !751, file: !322, line: 581, type: !895, isLocal: false, isDefinition: false, scopeLine: 581, flags: DIFlagPrototyped, isOptimized: false)
!895 = !DISubroutineType(types: !896)
!896 = !{!109, !766}
!897 = !DISubprogram(name: "to_short", linkageName: "_ZNK11ap_int_baseILi8ELb1EE8to_shortEv", scope: !751, file: !322, line: 582, type: !898, isLocal: false, isDefinition: false, scopeLine: 582, flags: DIFlagPrototyped, isOptimized: false)
!898 = !DISubroutineType(types: !899)
!899 = !{!35, !766}
!900 = !DISubprogram(name: "to_ushort", linkageName: "_ZNK11ap_int_baseILi8ELb1EE9to_ushortEv", scope: !751, file: !322, line: 583, type: !901, isLocal: false, isDefinition: false, scopeLine: 583, flags: DIFlagPrototyped, isOptimized: false)
!901 = !DISubroutineType(types: !902)
!902 = !{!118, !766}
!903 = !DISubprogram(name: "to_int", linkageName: "_ZNK11ap_int_baseILi8ELb1EE6to_intEv", scope: !751, file: !322, line: 584, type: !764, isLocal: false, isDefinition: false, scopeLine: 584, flags: DIFlagPrototyped, isOptimized: false)
!904 = !DISubprogram(name: "to_uint", linkageName: "_ZNK11ap_int_baseILi8ELb1EE7to_uintEv", scope: !751, file: !322, line: 585, type: !905, isLocal: false, isDefinition: false, scopeLine: 585, flags: DIFlagPrototyped, isOptimized: false)
!905 = !DISubroutineType(types: !906)
!906 = !{!126, !766}
!907 = !DISubprogram(name: "to_long", linkageName: "_ZNK11ap_int_baseILi8ELb1EE7to_longEv", scope: !751, file: !322, line: 586, type: !908, isLocal: false, isDefinition: false, scopeLine: 586, flags: DIFlagPrototyped, isOptimized: false)
!908 = !DISubroutineType(types: !909)
!909 = !{!131, !766}
!910 = !DISubprogram(name: "to_ulong", linkageName: "_ZNK11ap_int_baseILi8ELb1EE8to_ulongEv", scope: !751, file: !322, line: 587, type: !911, isLocal: false, isDefinition: false, scopeLine: 587, flags: DIFlagPrototyped, isOptimized: false)
!911 = !DISubroutineType(types: !912)
!912 = !{!136, !766}
!913 = !DISubprogram(name: "to_int64", linkageName: "_ZNK11ap_int_baseILi8ELb1EE8to_int64Ev", scope: !751, file: !322, line: 588, type: !914, isLocal: false, isDefinition: false, scopeLine: 588, flags: DIFlagPrototyped, isOptimized: false)
!914 = !DISubroutineType(types: !915)
!915 = !{!141, !766}
!916 = !DISubprogram(name: "to_uint64", linkageName: "_ZNK11ap_int_baseILi8ELb1EE9to_uint64Ev", scope: !751, file: !322, line: 589, type: !917, isLocal: false, isDefinition: false, scopeLine: 589, flags: DIFlagPrototyped, isOptimized: false)
!917 = !DISubroutineType(types: !918)
!918 = !{!147, !766}
!919 = !DISubprogram(name: "to_half", linkageName: "_ZNK11ap_int_baseILi8ELb1EE7to_halfEv", scope: !751, file: !322, line: 590, type: !920, isLocal: false, isDefinition: false, scopeLine: 590, flags: DIFlagPrototyped, isOptimized: false)
!920 = !DISubroutineType(types: !921)
!921 = !{!160, !766}
!922 = !DISubprogram(name: "to_float", linkageName: "_ZNK11ap_int_baseILi8ELb1EE8to_floatEv", scope: !751, file: !322, line: 591, type: !923, isLocal: false, isDefinition: false, scopeLine: 591, flags: DIFlagPrototyped, isOptimized: false)
!923 = !DISubroutineType(types: !924)
!924 = !{!156, !766}
!925 = !DISubprogram(name: "to_double", linkageName: "_ZNK11ap_int_baseILi8ELb1EE9to_doubleEv", scope: !751, file: !322, line: 592, type: !926, isLocal: false, isDefinition: false, scopeLine: 592, flags: DIFlagPrototyped, isOptimized: false)
!926 = !DISubroutineType(types: !927)
!927 = !{!152, !766}
!928 = !DISubprogram(name: "length", linkageName: "_ZNVK11ap_int_baseILi8ELb1EE6lengthEv", scope: !751, file: !322, line: 616, type: !929, isLocal: false, isDefinition: false, scopeLine: 616, flags: DIFlagPrototyped, isOptimized: false)
!929 = !DISubroutineType(types: !930)
!930 = !{!17, !931}
!931 = !DIDerivedType(tag: DW_TAG_pointer_type, baseType: !836, size: 64, flags: DIFlagArtificial | DIFlagObjectPointer)
!932 = !DISubprogram(name: "iszero", linkageName: "_ZNK11ap_int_baseILi8ELb1EE6iszeroEv", scope: !751, file: !322, line: 619, type: !886, isLocal: false, isDefinition: false, scopeLine: 619, flags: DIFlagPrototyped, isOptimized: false)
!933 = !DISubprogram(name: "is_zero", linkageName: "_ZNK11ap_int_baseILi8ELb1EE7is_zeroEv", scope: !751, file: !322, line: 622, type: !886, isLocal: false, isDefinition: false, scopeLine: 622, flags: DIFlagPrototyped, isOptimized: false)
!934 = !DISubprogram(name: "sign", linkageName: "_ZNK11ap_int_baseILi8ELb1EE4signEv", scope: !751, file: !322, line: 625, type: !886, isLocal: false, isDefinition: false, scopeLine: 625, flags: DIFlagPrototyped, isOptimized: false)
!935 = !DISubprogram(name: "clear", linkageName: "_ZN11ap_int_baseILi8ELb1EE5clearEi", scope: !751, file: !322, line: 634, type: !936, isLocal: false, isDefinition: false, scopeLine: 634, flags: DIFlagPrototyped, isOptimized: false)
!936 = !DISubroutineType(types: !937)
!937 = !{null, !771, !17}
!938 = !DISubprogram(name: "invert", linkageName: "_ZN11ap_int_baseILi8ELb1EE6invertEi", scope: !751, file: !322, line: 640, type: !936, isLocal: false, isDefinition: false, scopeLine: 640, flags: DIFlagPrototyped, isOptimized: false)
!939 = !DISubprogram(name: "test", linkageName: "_ZNK11ap_int_baseILi8ELb1EE4testEi", scope: !751, file: !322, line: 649, type: !940, isLocal: false, isDefinition: false, scopeLine: 649, flags: DIFlagPrototyped, isOptimized: false)
!940 = !DISubroutineType(types: !941)
!941 = !{!43, !766, !17}
!942 = !DISubprogram(name: "get", linkageName: "_ZN11ap_int_baseILi8ELb1EE3getEv", scope: !751, file: !322, line: 655, type: !943, isLocal: false, isDefinition: false, scopeLine: 655, flags: DIFlagPrototyped, isOptimized: false)
!943 = !DISubroutineType(types: !944)
!944 = !{!841, !771}
!945 = !DISubprogram(name: "set", linkageName: "_ZN11ap_int_baseILi8ELb1EE3setEi", scope: !751, file: !322, line: 658, type: !936, isLocal: false, isDefinition: false, scopeLine: 658, flags: DIFlagPrototyped, isOptimized: false)
!946 = !DISubprogram(name: "set", linkageName: "_ZN11ap_int_baseILi8ELb1EE3setEib", scope: !751, file: !322, line: 664, type: !947, isLocal: false, isDefinition: false, scopeLine: 664, flags: DIFlagPrototyped, isOptimized: false)
!947 = !DISubroutineType(types: !948)
!948 = !{null, !771, !17, !43}
!949 = !DISubprogram(name: "lrotate", linkageName: "_ZN11ap_int_baseILi8ELb1EE7lrotateEi", scope: !751, file: !322, line: 671, type: !864, isLocal: false, isDefinition: false, scopeLine: 671, flags: DIFlagPrototyped, isOptimized: false)
!950 = !DISubprogram(name: "rrotate", linkageName: "_ZN11ap_int_baseILi8ELb1EE7rrotateEi", scope: !751, file: !322, line: 686, type: !864, isLocal: false, isDefinition: false, scopeLine: 686, flags: DIFlagPrototyped, isOptimized: false)
!951 = !DISubprogram(name: "reverse", linkageName: "_ZN11ap_int_baseILi8ELb1EE7reverseEv", scope: !751, file: !322, line: 701, type: !943, isLocal: false, isDefinition: false, scopeLine: 701, flags: DIFlagPrototyped, isOptimized: false)
!952 = !DISubprogram(name: "set_bit", linkageName: "_ZN11ap_int_baseILi8ELb1EE7set_bitEib", scope: !751, file: !322, line: 707, type: !947, isLocal: false, isDefinition: false, scopeLine: 707, flags: DIFlagPrototyped, isOptimized: false)
!953 = !DISubprogram(name: "get_bit", linkageName: "_ZNK11ap_int_baseILi8ELb1EE7get_bitEi", scope: !751, file: !322, line: 712, type: !940, isLocal: false, isDefinition: false, scopeLine: 712, flags: DIFlagPrototyped, isOptimized: false)
!954 = !DISubprogram(name: "b_not", linkageName: "_ZN11ap_int_baseILi8ELb1EE5b_notEv", scope: !751, file: !322, line: 717, type: !769, isLocal: false, isDefinition: false, scopeLine: 717, flags: DIFlagPrototyped, isOptimized: false)
!955 = !DISubprogram(name: "checkOverflowCsim", linkageName: "_ZNK11ap_int_baseILi8ELb1EE17checkOverflowCsimEibb", scope: !751, file: !322, line: 791, type: !956, isLocal: false, isDefinition: false, scopeLine: 791, flags: DIFlagPrototyped, isOptimized: false)
!956 = !DISubroutineType(types: !957)
!957 = !{!43, !766, !17, !43, !43}
!958 = !DISubprogram(name: "operator++", linkageName: "_ZN11ap_int_baseILi8ELb1EEppEv", scope: !751, file: !322, line: 895, type: !943, isLocal: false, isDefinition: false, scopeLine: 895, flags: DIFlagPrototyped, isOptimized: false)
!959 = !DISubprogram(name: "operator--", linkageName: "_ZN11ap_int_baseILi8ELb1EEmmEv", scope: !751, file: !322, line: 899, type: !943, isLocal: false, isDefinition: false, scopeLine: 899, flags: DIFlagPrototyped, isOptimized: false)
!960 = !DISubprogram(name: "operator++", linkageName: "_ZN11ap_int_baseILi8ELb1EEppEi", scope: !751, file: !322, line: 907, type: !961, isLocal: false, isDefinition: false, scopeLine: 907, flags: DIFlagPrototyped, isOptimized: false)
!961 = !DISubroutineType(types: !962)
!962 = !{!963, !771, !17}
!963 = !DIDerivedType(tag: DW_TAG_const_type, baseType: !964)
!964 = !DIDerivedType(tag: DW_TAG_typedef, name: "arg1", scope: !965, file: !322, line: 206, baseType: !744)
!965 = distinct !DICompositeType(tag: DW_TAG_structure_type, name: "RType<8, true>", scope: !751, file: !322, line: 173, size: 8, flags: DIFlagTypePassByValue, elements: !4, templateParams: !746, identifier: "_ZTSN11ap_int_baseILi8ELb1EE5RTypeILi8ELb1EEE")
!966 = !DISubprogram(name: "operator--", linkageName: "_ZN11ap_int_baseILi8ELb1EEmmEi", scope: !751, file: !322, line: 912, type: !961, isLocal: false, isDefinition: false, scopeLine: 912, flags: DIFlagPrototyped, isOptimized: false)
!967 = !DISubprogram(name: "operator+", linkageName: "_ZNK11ap_int_baseILi8ELb1EEpsEv", scope: !751, file: !322, line: 921, type: !968, isLocal: false, isDefinition: false, scopeLine: 921, flags: DIFlagPrototyped, isOptimized: false)
!968 = !DISubroutineType(types: !969)
!969 = !{!964, !766}
!970 = !DISubprogram(name: "operator-", linkageName: "_ZNK11ap_int_baseILi8ELb1EEngEv", scope: !751, file: !322, line: 924, type: !971, isLocal: false, isDefinition: false, scopeLine: 924, flags: DIFlagPrototyped, isOptimized: false)
!971 = !DISubroutineType(types: !972)
!972 = !{!973, !766}
!973 = !DIDerivedType(tag: DW_TAG_typedef, name: "minus", scope: !974, file: !322, line: 202, baseType: !975)
!974 = distinct !DICompositeType(tag: DW_TAG_structure_type, name: "RType<1, false>", scope: !751, file: !322, line: 173, size: 8, flags: DIFlagTypePassByValue, elements: !4, templateParams: !504, identifier: "_ZTSN11ap_int_baseILi8ELb1EE5RTypeILi1ELb0EEE")
!975 = !DIDerivedType(tag: DW_TAG_typedef, name: "type", scope: !976, file: !322, line: 142, baseType: !979)
!976 = distinct !DICompositeType(tag: DW_TAG_structure_type, name: "_ap_int_factory<9, true>", file: !322, line: 142, size: 8, flags: DIFlagTypePassByValue, elements: !4, templateParams: !977, identifier: "_ZTS15_ap_int_factoryILi9ELb1EE")
!977 = !{!978, !408}
!978 = !DITemplateValueParameter(name: "_AP_W2", type: !17, value: i32 9)
!979 = distinct !DICompositeType(tag: DW_TAG_structure_type, name: "ap_int<9>", file: !412, line: 17, size: 16, flags: DIFlagTypePassByValue, elements: !980, templateParams: !3955, identifier: "_ZTS6ap_intILi9EE")
!980 = !{!981, !4406, !4410, !4413, !4416, !4419, !4422, !4425, !4428, !4431, !4434, !4437, !4440, !4443, !4446, !4449, !4452, !4455, !4458, !4461, !4464, !4470, !4476, !4480}
!981 = !DIDerivedType(tag: DW_TAG_inheritance, scope: !979, baseType: !982)
!982 = distinct !DICompositeType(tag: DW_TAG_structure_type, name: "ap_int_base<9, true>", file: !176, line: 101, size: 16, flags: DIFlagTypePassByValue, elements: !983, templateParams: !4292, identifier: "_ZTS11ap_int_baseILi9ELb1EE")
!983 = !{!984, !995, !996, !997, !1002, !1006, !1009, !1012, !1015, !1018, !1021, !1024, !1027, !1030, !1033, !1036, !1039, !1042, !1045, !1048, !1051, !1054, !1057, !1062, !1066, !1071, !1072, !1076, !1079, !1082, !1085, !1088, !1091, !1094, !1097, !1100, !1103, !1106, !1109, !1112, !1115, !1119, !1122, !1125, !1128, !1131, !1134, !1137, !1138, !1141, !1144, !1147, !1150, !1153, !1156, !1159, !1162, !1166, !1167, !1168, !1169, !1172, !1173, !1176, !1179, !1180, !1183, !1184, !1185, !1186, !1187, !1188, !1189, !1192, !1193, !1194, !1201, !1202, !1205, !3624, !3625, !3626, !4293, !4296, !4299, !4302, !4303, !4304, !4393, !4394, !4395, !4396, !4397, !4398, !4399, !4400, !4401, !4402, !4403}
!984 = !DIDerivedType(tag: DW_TAG_inheritance, scope: !982, baseType: !985)
!985 = distinct !DICompositeType(tag: DW_TAG_structure_type, name: "ssdm_int<9, true>", file: !245, line: 466, size: 16, flags: DIFlagTypePassByValue, elements: !986, templateParams: !993, identifier: "_ZTS8ssdm_intILi9ELb1EE")
!986 = !{!987, !989}
!987 = !DIDerivedType(tag: DW_TAG_member, name: "V", scope: !985, file: !245, line: 467, baseType: !988, size: 9, align: 16)
!988 = !DIBasicType(name: "int9", size: 9, encoding: DW_ATE_signed)
!989 = !DISubprogram(name: "ssdm_int", scope: !985, file: !245, line: 468, type: !990, isLocal: false, isDefinition: false, scopeLine: 468, flags: DIFlagPrototyped, isOptimized: false)
!990 = !DISubroutineType(types: !991)
!991 = !{null, !992}
!992 = !DIDerivedType(tag: DW_TAG_pointer_type, baseType: !985, size: 64, flags: DIFlagArtificial | DIFlagObjectPointer)
!993 = !{!994, !42}
!994 = !DITemplateValueParameter(name: "_AP_N", type: !17, value: i32 9)
!995 = !DIDerivedType(tag: DW_TAG_member, name: "width", scope: !982, file: !176, line: 123, baseType: !45, flags: DIFlagStaticMember, extraData: i32 9)
!996 = !DIDerivedType(tag: DW_TAG_member, name: "sign_flag", scope: !982, file: !176, line: 124, baseType: !97, flags: DIFlagStaticMember, extraData: i1 true)
!997 = !DISubprogram(name: "countLeadingOnes", linkageName: "_ZNK11ap_int_baseILi9ELb1EE16countLeadingOnesEv", scope: !982, file: !176, line: 103, type: !998, isLocal: false, isDefinition: false, scopeLine: 103, flags: DIFlagPrivate | DIFlagPrototyped, isOptimized: false)
!998 = !DISubroutineType(types: !999)
!999 = !{!17, !1000}
!1000 = !DIDerivedType(tag: DW_TAG_pointer_type, baseType: !1001, size: 64, flags: DIFlagArtificial | DIFlagObjectPointer)
!1001 = !DIDerivedType(tag: DW_TAG_const_type, baseType: !982)
!1002 = !DISubprogram(name: "ap_int_base", scope: !982, file: !176, line: 168, type: !1003, isLocal: false, isDefinition: false, scopeLine: 168, flags: DIFlagPrototyped, isOptimized: false)
!1003 = !DISubroutineType(types: !1004)
!1004 = !{null, !1005}
!1005 = !DIDerivedType(tag: DW_TAG_pointer_type, baseType: !982, size: 64, flags: DIFlagArtificial | DIFlagObjectPointer)
!1006 = !DISubprogram(name: "ap_int_base", scope: !982, file: !176, line: 201, type: !1007, isLocal: false, isDefinition: false, scopeLine: 201, flags: DIFlagPrototyped, isOptimized: false)
!1007 = !DISubroutineType(types: !1008)
!1008 = !{null, !1005, !97}
!1009 = !DISubprogram(name: "ap_int_base", scope: !982, file: !176, line: 202, type: !1010, isLocal: false, isDefinition: false, scopeLine: 202, flags: DIFlagPrototyped, isOptimized: false)
!1010 = !DISubroutineType(types: !1011)
!1011 = !{null, !1005, !88}
!1012 = !DISubprogram(name: "ap_int_base", scope: !982, file: !176, line: 203, type: !1013, isLocal: false, isDefinition: false, scopeLine: 203, flags: DIFlagPrototyped, isOptimized: false)
!1013 = !DISubroutineType(types: !1014)
!1014 = !{null, !1005, !104}
!1015 = !DISubprogram(name: "ap_int_base", scope: !982, file: !176, line: 204, type: !1016, isLocal: false, isDefinition: false, scopeLine: 204, flags: DIFlagPrototyped, isOptimized: false)
!1016 = !DISubroutineType(types: !1017)
!1017 = !{null, !1005, !108}
!1018 = !DISubprogram(name: "ap_int_base", scope: !982, file: !176, line: 205, type: !1019, isLocal: false, isDefinition: false, scopeLine: 205, flags: DIFlagPrototyped, isOptimized: false)
!1019 = !DISubroutineType(types: !1020)
!1020 = !{null, !1005, !113}
!1021 = !DISubprogram(name: "ap_int_base", scope: !982, file: !176, line: 206, type: !1022, isLocal: false, isDefinition: false, scopeLine: 206, flags: DIFlagPrototyped, isOptimized: false)
!1022 = !DISubroutineType(types: !1023)
!1023 = !{null, !1005, !117}
!1024 = !DISubprogram(name: "ap_int_base", scope: !982, file: !176, line: 207, type: !1025, isLocal: false, isDefinition: false, scopeLine: 207, flags: DIFlagPrototyped, isOptimized: false)
!1025 = !DISubroutineType(types: !1026)
!1026 = !{null, !1005, !45}
!1027 = !DISubprogram(name: "ap_int_base", scope: !982, file: !176, line: 208, type: !1028, isLocal: false, isDefinition: false, scopeLine: 208, flags: DIFlagPrototyped, isOptimized: false)
!1028 = !DISubroutineType(types: !1029)
!1029 = !{null, !1005, !125}
!1030 = !DISubprogram(name: "ap_int_base", scope: !982, file: !176, line: 209, type: !1031, isLocal: false, isDefinition: false, scopeLine: 209, flags: DIFlagPrototyped, isOptimized: false)
!1031 = !DISubroutineType(types: !1032)
!1032 = !{null, !1005, !130}
!1033 = !DISubprogram(name: "ap_int_base", scope: !982, file: !176, line: 210, type: !1034, isLocal: false, isDefinition: false, scopeLine: 210, flags: DIFlagPrototyped, isOptimized: false)
!1034 = !DISubroutineType(types: !1035)
!1035 = !{null, !1005, !135}
!1036 = !DISubprogram(name: "ap_int_base", scope: !982, file: !176, line: 211, type: !1037, isLocal: false, isDefinition: false, scopeLine: 211, flags: DIFlagPrototyped, isOptimized: false)
!1037 = !DISubroutineType(types: !1038)
!1038 = !{null, !1005, !233}
!1039 = !DISubprogram(name: "ap_int_base", scope: !982, file: !176, line: 212, type: !1040, isLocal: false, isDefinition: false, scopeLine: 212, flags: DIFlagPrototyped, isOptimized: false)
!1040 = !DISubroutineType(types: !1041)
!1041 = !{null, !1005, !239}
!1042 = !DISubprogram(name: "ap_int_base", scope: !982, file: !176, line: 217, type: !1043, isLocal: false, isDefinition: false, scopeLine: 217, flags: DIFlagPrototyped, isOptimized: false)
!1043 = !DISubroutineType(types: !1044)
!1044 = !{null, !1005, !244}
!1045 = !DISubprogram(name: "ap_int_base", scope: !982, file: !176, line: 223, type: !1046, isLocal: false, isDefinition: false, scopeLine: 223, flags: DIFlagPrototyped, isOptimized: false)
!1046 = !DISubroutineType(types: !1047)
!1047 = !{null, !1005, !156}
!1048 = !DISubprogram(name: "ap_int_base", scope: !982, file: !176, line: 282, type: !1049, isLocal: false, isDefinition: false, scopeLine: 282, flags: DIFlagPrototyped, isOptimized: false)
!1049 = !DISubroutineType(types: !1050)
!1050 = !{null, !1005, !152}
!1051 = !DISubprogram(name: "ap_int_base", scope: !982, file: !176, line: 378, type: !1052, isLocal: false, isDefinition: false, scopeLine: 378, flags: DIFlagPrototyped, isOptimized: false)
!1052 = !DISubroutineType(types: !1053)
!1053 = !{null, !1005, !87}
!1054 = !DISubprogram(name: "ap_int_base", scope: !982, file: !176, line: 384, type: !1055, isLocal: false, isDefinition: false, scopeLine: 384, flags: DIFlagPrototyped, isOptimized: false)
!1055 = !DISubroutineType(types: !1056)
!1056 = !{null, !1005, !87, !93}
!1057 = !DISubprogram(name: "read", linkageName: "_ZNV11ap_int_baseILi9ELb1EE4readEv", scope: !982, file: !176, line: 406, type: !1058, isLocal: false, isDefinition: false, scopeLine: 406, flags: DIFlagPrototyped, isOptimized: false)
!1058 = !DISubroutineType(types: !1059)
!1059 = !{!982, !1060}
!1060 = !DIDerivedType(tag: DW_TAG_pointer_type, baseType: !1061, size: 64, flags: DIFlagArtificial | DIFlagObjectPointer)
!1061 = !DIDerivedType(tag: DW_TAG_volatile_type, baseType: !982)
!1062 = !DISubprogram(name: "write", linkageName: "_ZNV11ap_int_baseILi9ELb1EE5writeERKS0_", scope: !982, file: !176, line: 413, type: !1063, isLocal: false, isDefinition: false, scopeLine: 413, flags: DIFlagPrototyped, isOptimized: false)
!1063 = !DISubroutineType(types: !1064)
!1064 = !{null, !1060, !1065}
!1065 = !DIDerivedType(tag: DW_TAG_reference_type, baseType: !1001, size: 64)
!1066 = !DISubprogram(name: "operator=", linkageName: "_ZNV11ap_int_baseILi9ELb1EEaSERVKS0_", scope: !982, file: !176, line: 425, type: !1067, isLocal: false, isDefinition: false, scopeLine: 425, flags: DIFlagPrototyped, isOptimized: false)
!1067 = !DISubroutineType(types: !1068)
!1068 = !{null, !1060, !1069}
!1069 = !DIDerivedType(tag: DW_TAG_reference_type, baseType: !1070, size: 64)
!1070 = !DIDerivedType(tag: DW_TAG_const_type, baseType: !1061)
!1071 = !DISubprogram(name: "operator=", linkageName: "_ZNV11ap_int_baseILi9ELb1EEaSERKS0_", scope: !982, file: !176, line: 435, type: !1063, isLocal: false, isDefinition: false, scopeLine: 435, flags: DIFlagPrototyped, isOptimized: false)
!1072 = !DISubprogram(name: "operator=", linkageName: "_ZN11ap_int_baseILi9ELb1EEaSERVKS0_", scope: !982, file: !176, line: 452, type: !1073, isLocal: false, isDefinition: false, scopeLine: 452, flags: DIFlagPrototyped, isOptimized: false)
!1073 = !DISubroutineType(types: !1074)
!1074 = !{!1075, !1005, !1069}
!1075 = !DIDerivedType(tag: DW_TAG_reference_type, baseType: !982, size: 64)
!1076 = !DISubprogram(name: "operator=", linkageName: "_ZN11ap_int_baseILi9ELb1EEaSERKS0_", scope: !982, file: !176, line: 457, type: !1077, isLocal: false, isDefinition: false, scopeLine: 457, flags: DIFlagPrototyped, isOptimized: false)
!1077 = !DISubroutineType(types: !1078)
!1078 = !{!1075, !1005, !1065}
!1079 = !DISubprogram(name: "operator=", linkageName: "_ZN11ap_int_baseILi9ELb1EEaSEb", scope: !982, file: !176, line: 465, type: !1080, isLocal: false, isDefinition: false, scopeLine: 465, flags: DIFlagPrototyped, isOptimized: false)
!1080 = !DISubroutineType(types: !1081)
!1081 = !{!1075, !1005, !43}
!1082 = !DISubprogram(name: "operator=", linkageName: "_ZN11ap_int_baseILi9ELb1EEaSEc", scope: !982, file: !176, line: 466, type: !1083, isLocal: false, isDefinition: false, scopeLine: 466, flags: DIFlagPrototyped, isOptimized: false)
!1083 = !DISubroutineType(types: !1084)
!1084 = !{!1075, !1005, !89}
!1085 = !DISubprogram(name: "operator=", linkageName: "_ZN11ap_int_baseILi9ELb1EEaSEa", scope: !982, file: !176, line: 467, type: !1086, isLocal: false, isDefinition: false, scopeLine: 467, flags: DIFlagPrototyped, isOptimized: false)
!1086 = !DISubroutineType(types: !1087)
!1087 = !{!1075, !1005, !93}
!1088 = !DISubprogram(name: "operator=", linkageName: "_ZN11ap_int_baseILi9ELb1EEaSEh", scope: !982, file: !176, line: 468, type: !1089, isLocal: false, isDefinition: false, scopeLine: 468, flags: DIFlagPrototyped, isOptimized: false)
!1089 = !DISubroutineType(types: !1090)
!1090 = !{!1075, !1005, !109}
!1091 = !DISubprogram(name: "operator=", linkageName: "_ZN11ap_int_baseILi9ELb1EEaSEs", scope: !982, file: !176, line: 469, type: !1092, isLocal: false, isDefinition: false, scopeLine: 469, flags: DIFlagPrototyped, isOptimized: false)
!1092 = !DISubroutineType(types: !1093)
!1093 = !{!1075, !1005, !35}
!1094 = !DISubprogram(name: "operator=", linkageName: "_ZN11ap_int_baseILi9ELb1EEaSEt", scope: !982, file: !176, line: 470, type: !1095, isLocal: false, isDefinition: false, scopeLine: 470, flags: DIFlagPrototyped, isOptimized: false)
!1095 = !DISubroutineType(types: !1096)
!1096 = !{!1075, !1005, !118}
!1097 = !DISubprogram(name: "operator=", linkageName: "_ZN11ap_int_baseILi9ELb1EEaSEi", scope: !982, file: !176, line: 471, type: !1098, isLocal: false, isDefinition: false, scopeLine: 471, flags: DIFlagPrototyped, isOptimized: false)
!1098 = !DISubroutineType(types: !1099)
!1099 = !{!1075, !1005, !17}
!1100 = !DISubprogram(name: "operator=", linkageName: "_ZN11ap_int_baseILi9ELb1EEaSEj", scope: !982, file: !176, line: 472, type: !1101, isLocal: false, isDefinition: false, scopeLine: 472, flags: DIFlagPrototyped, isOptimized: false)
!1101 = !DISubroutineType(types: !1102)
!1102 = !{!1075, !1005, !126}
!1103 = !DISubprogram(name: "operator=", linkageName: "_ZN11ap_int_baseILi9ELb1EEaSEl", scope: !982, file: !176, line: 473, type: !1104, isLocal: false, isDefinition: false, scopeLine: 473, flags: DIFlagPrototyped, isOptimized: false)
!1104 = !DISubroutineType(types: !1105)
!1105 = !{!1075, !1005, !131}
!1106 = !DISubprogram(name: "operator=", linkageName: "_ZN11ap_int_baseILi9ELb1EEaSEm", scope: !982, file: !176, line: 474, type: !1107, isLocal: false, isDefinition: false, scopeLine: 474, flags: DIFlagPrototyped, isOptimized: false)
!1107 = !DISubroutineType(types: !1108)
!1108 = !{!1075, !1005, !136}
!1109 = !DISubprogram(name: "operator=", linkageName: "_ZN11ap_int_baseILi9ELb1EEaSEx", scope: !982, file: !176, line: 475, type: !1110, isLocal: false, isDefinition: false, scopeLine: 475, flags: DIFlagPrototyped, isOptimized: false)
!1110 = !DISubroutineType(types: !1111)
!1111 = !{!1075, !1005, !234}
!1112 = !DISubprogram(name: "operator=", linkageName: "_ZN11ap_int_baseILi9ELb1EEaSEy", scope: !982, file: !176, line: 476, type: !1113, isLocal: false, isDefinition: false, scopeLine: 476, flags: DIFlagPrototyped, isOptimized: false)
!1113 = !DISubroutineType(types: !1114)
!1114 = !{!1075, !1005, !240}
!1115 = !DISubprogram(name: "operator long long", linkageName: "_ZNK11ap_int_baseILi9ELb1EEcvxEv", scope: !982, file: !176, line: 527, type: !1116, isLocal: false, isDefinition: false, scopeLine: 527, flags: DIFlagPrototyped, isOptimized: false)
!1116 = !DISubroutineType(types: !1117)
!1117 = !{!1118, !1000}
!1118 = !DIDerivedType(tag: DW_TAG_typedef, name: "RetType", scope: !982, file: !176, line: 121, baseType: !320)
!1119 = !DISubprogram(name: "to_bool", linkageName: "_ZNK11ap_int_baseILi9ELb1EE7to_boolEv", scope: !982, file: !176, line: 532, type: !1120, isLocal: false, isDefinition: false, scopeLine: 532, flags: DIFlagPrototyped, isOptimized: false)
!1120 = !DISubroutineType(types: !1121)
!1121 = !{!43, !1000}
!1122 = !DISubprogram(name: "to_char", linkageName: "_ZNK11ap_int_baseILi9ELb1EE7to_charEv", scope: !982, file: !176, line: 533, type: !1123, isLocal: false, isDefinition: false, scopeLine: 533, flags: DIFlagPrototyped, isOptimized: false)
!1123 = !DISubroutineType(types: !1124)
!1124 = !{!89, !1000}
!1125 = !DISubprogram(name: "to_schar", linkageName: "_ZNK11ap_int_baseILi9ELb1EE8to_scharEv", scope: !982, file: !176, line: 534, type: !1126, isLocal: false, isDefinition: false, scopeLine: 534, flags: DIFlagPrototyped, isOptimized: false)
!1126 = !DISubroutineType(types: !1127)
!1127 = !{!93, !1000}
!1128 = !DISubprogram(name: "to_uchar", linkageName: "_ZNK11ap_int_baseILi9ELb1EE8to_ucharEv", scope: !982, file: !176, line: 535, type: !1129, isLocal: false, isDefinition: false, scopeLine: 535, flags: DIFlagPrototyped, isOptimized: false)
!1129 = !DISubroutineType(types: !1130)
!1130 = !{!109, !1000}
!1131 = !DISubprogram(name: "to_short", linkageName: "_ZNK11ap_int_baseILi9ELb1EE8to_shortEv", scope: !982, file: !176, line: 536, type: !1132, isLocal: false, isDefinition: false, scopeLine: 536, flags: DIFlagPrototyped, isOptimized: false)
!1132 = !DISubroutineType(types: !1133)
!1133 = !{!35, !1000}
!1134 = !DISubprogram(name: "to_ushort", linkageName: "_ZNK11ap_int_baseILi9ELb1EE9to_ushortEv", scope: !982, file: !176, line: 537, type: !1135, isLocal: false, isDefinition: false, scopeLine: 537, flags: DIFlagPrototyped, isOptimized: false)
!1135 = !DISubroutineType(types: !1136)
!1136 = !{!118, !1000}
!1137 = !DISubprogram(name: "to_int", linkageName: "_ZNK11ap_int_baseILi9ELb1EE6to_intEv", scope: !982, file: !176, line: 538, type: !998, isLocal: false, isDefinition: false, scopeLine: 538, flags: DIFlagPrototyped, isOptimized: false)
!1138 = !DISubprogram(name: "to_uint", linkageName: "_ZNK11ap_int_baseILi9ELb1EE7to_uintEv", scope: !982, file: !176, line: 539, type: !1139, isLocal: false, isDefinition: false, scopeLine: 539, flags: DIFlagPrototyped, isOptimized: false)
!1139 = !DISubroutineType(types: !1140)
!1140 = !{!126, !1000}
!1141 = !DISubprogram(name: "to_long", linkageName: "_ZNK11ap_int_baseILi9ELb1EE7to_longEv", scope: !982, file: !176, line: 540, type: !1142, isLocal: false, isDefinition: false, scopeLine: 540, flags: DIFlagPrototyped, isOptimized: false)
!1142 = !DISubroutineType(types: !1143)
!1143 = !{!131, !1000}
!1144 = !DISubprogram(name: "to_ulong", linkageName: "_ZNK11ap_int_baseILi9ELb1EE8to_ulongEv", scope: !982, file: !176, line: 541, type: !1145, isLocal: false, isDefinition: false, scopeLine: 541, flags: DIFlagPrototyped, isOptimized: false)
!1145 = !DISubroutineType(types: !1146)
!1146 = !{!136, !1000}
!1147 = !DISubprogram(name: "to_int64", linkageName: "_ZNK11ap_int_baseILi9ELb1EE8to_int64Ev", scope: !982, file: !176, line: 542, type: !1148, isLocal: false, isDefinition: false, scopeLine: 542, flags: DIFlagPrototyped, isOptimized: false)
!1148 = !DISubroutineType(types: !1149)
!1149 = !{!234, !1000}
!1150 = !DISubprogram(name: "to_uint64", linkageName: "_ZNK11ap_int_baseILi9ELb1EE9to_uint64Ev", scope: !982, file: !176, line: 543, type: !1151, isLocal: false, isDefinition: false, scopeLine: 543, flags: DIFlagPrototyped, isOptimized: false)
!1151 = !DISubroutineType(types: !1152)
!1152 = !{!240, !1000}
!1153 = !DISubprogram(name: "to_half", linkageName: "_ZNK11ap_int_baseILi9ELb1EE7to_halfEv", scope: !982, file: !176, line: 544, type: !1154, isLocal: false, isDefinition: false, scopeLine: 544, flags: DIFlagPrototyped, isOptimized: false)
!1154 = !DISubroutineType(types: !1155)
!1155 = !{!244, !1000}
!1156 = !DISubprogram(name: "to_float", linkageName: "_ZNK11ap_int_baseILi9ELb1EE8to_floatEv", scope: !982, file: !176, line: 545, type: !1157, isLocal: false, isDefinition: false, scopeLine: 545, flags: DIFlagPrototyped, isOptimized: false)
!1157 = !DISubroutineType(types: !1158)
!1158 = !{!156, !1000}
!1159 = !DISubprogram(name: "to_double", linkageName: "_ZNK11ap_int_baseILi9ELb1EE9to_doubleEv", scope: !982, file: !176, line: 546, type: !1160, isLocal: false, isDefinition: false, scopeLine: 546, flags: DIFlagPrototyped, isOptimized: false)
!1160 = !DISubroutineType(types: !1161)
!1161 = !{!152, !1000}
!1162 = !DISubprogram(name: "length", linkageName: "_ZNVK11ap_int_baseILi9ELb1EE6lengthEv", scope: !982, file: !176, line: 570, type: !1163, isLocal: false, isDefinition: false, scopeLine: 570, flags: DIFlagPrototyped, isOptimized: false)
!1163 = !DISubroutineType(types: !1164)
!1164 = !{!17, !1165}
!1165 = !DIDerivedType(tag: DW_TAG_pointer_type, baseType: !1070, size: 64, flags: DIFlagArtificial | DIFlagObjectPointer)
!1166 = !DISubprogram(name: "iszero", linkageName: "_ZNK11ap_int_baseILi9ELb1EE6iszeroEv", scope: !982, file: !176, line: 573, type: !1120, isLocal: false, isDefinition: false, scopeLine: 573, flags: DIFlagPrototyped, isOptimized: false)
!1167 = !DISubprogram(name: "is_zero", linkageName: "_ZNK11ap_int_baseILi9ELb1EE7is_zeroEv", scope: !982, file: !176, line: 576, type: !1120, isLocal: false, isDefinition: false, scopeLine: 576, flags: DIFlagPrototyped, isOptimized: false)
!1168 = !DISubprogram(name: "sign", linkageName: "_ZNK11ap_int_baseILi9ELb1EE4signEv", scope: !982, file: !176, line: 579, type: !1120, isLocal: false, isDefinition: false, scopeLine: 579, flags: DIFlagPrototyped, isOptimized: false)
!1169 = !DISubprogram(name: "clear", linkageName: "_ZN11ap_int_baseILi9ELb1EE5clearEi", scope: !982, file: !176, line: 588, type: !1170, isLocal: false, isDefinition: false, scopeLine: 588, flags: DIFlagPrototyped, isOptimized: false)
!1170 = !DISubroutineType(types: !1171)
!1171 = !{null, !1005, !17}
!1172 = !DISubprogram(name: "invert", linkageName: "_ZN11ap_int_baseILi9ELb1EE6invertEi", scope: !982, file: !176, line: 594, type: !1170, isLocal: false, isDefinition: false, scopeLine: 594, flags: DIFlagPrototyped, isOptimized: false)
!1173 = !DISubprogram(name: "test", linkageName: "_ZNK11ap_int_baseILi9ELb1EE4testEi", scope: !982, file: !176, line: 603, type: !1174, isLocal: false, isDefinition: false, scopeLine: 603, flags: DIFlagPrototyped, isOptimized: false)
!1174 = !DISubroutineType(types: !1175)
!1175 = !{!43, !1000, !17}
!1176 = !DISubprogram(name: "get", linkageName: "_ZN11ap_int_baseILi9ELb1EE3getEv", scope: !982, file: !176, line: 609, type: !1177, isLocal: false, isDefinition: false, scopeLine: 609, flags: DIFlagPrototyped, isOptimized: false)
!1177 = !DISubroutineType(types: !1178)
!1178 = !{!1075, !1005}
!1179 = !DISubprogram(name: "set", linkageName: "_ZN11ap_int_baseILi9ELb1EE3setEi", scope: !982, file: !176, line: 612, type: !1170, isLocal: false, isDefinition: false, scopeLine: 612, flags: DIFlagPrototyped, isOptimized: false)
!1180 = !DISubprogram(name: "set", linkageName: "_ZN11ap_int_baseILi9ELb1EE3setEib", scope: !982, file: !176, line: 618, type: !1181, isLocal: false, isDefinition: false, scopeLine: 618, flags: DIFlagPrototyped, isOptimized: false)
!1181 = !DISubroutineType(types: !1182)
!1182 = !{null, !1005, !17, !43}
!1183 = !DISubprogram(name: "lrotate", linkageName: "_ZN11ap_int_baseILi9ELb1EE7lrotateEi", scope: !982, file: !176, line: 625, type: !1098, isLocal: false, isDefinition: false, scopeLine: 625, flags: DIFlagPrototyped, isOptimized: false)
!1184 = !DISubprogram(name: "rrotate", linkageName: "_ZN11ap_int_baseILi9ELb1EE7rrotateEi", scope: !982, file: !176, line: 640, type: !1098, isLocal: false, isDefinition: false, scopeLine: 640, flags: DIFlagPrototyped, isOptimized: false)
!1185 = !DISubprogram(name: "reverse", linkageName: "_ZN11ap_int_baseILi9ELb1EE7reverseEv", scope: !982, file: !176, line: 655, type: !1177, isLocal: false, isDefinition: false, scopeLine: 655, flags: DIFlagPrototyped, isOptimized: false)
!1186 = !DISubprogram(name: "set_bit", linkageName: "_ZN11ap_int_baseILi9ELb1EE7set_bitEib", scope: !982, file: !176, line: 661, type: !1181, isLocal: false, isDefinition: false, scopeLine: 661, flags: DIFlagPrototyped, isOptimized: false)
!1187 = !DISubprogram(name: "get_bit", linkageName: "_ZNK11ap_int_baseILi9ELb1EE7get_bitEi", scope: !982, file: !176, line: 666, type: !1174, isLocal: false, isDefinition: false, scopeLine: 666, flags: DIFlagPrototyped, isOptimized: false)
!1188 = !DISubprogram(name: "b_not", linkageName: "_ZN11ap_int_baseILi9ELb1EE5b_notEv", scope: !982, file: !176, line: 671, type: !1003, isLocal: false, isDefinition: false, scopeLine: 671, flags: DIFlagPrototyped, isOptimized: false)
!1189 = !DISubprogram(name: "checkOverflowCsim", linkageName: "_ZNK11ap_int_baseILi9ELb1EE17checkOverflowCsimEibb", scope: !982, file: !176, line: 745, type: !1190, isLocal: false, isDefinition: false, scopeLine: 745, flags: DIFlagPrototyped, isOptimized: false)
!1190 = !DISubroutineType(types: !1191)
!1191 = !{!43, !1000, !17, !43, !43}
!1192 = !DISubprogram(name: "operator++", linkageName: "_ZN11ap_int_baseILi9ELb1EEppEv", scope: !982, file: !176, line: 849, type: !1177, isLocal: false, isDefinition: false, scopeLine: 849, flags: DIFlagPrototyped, isOptimized: false)
!1193 = !DISubprogram(name: "operator--", linkageName: "_ZN11ap_int_baseILi9ELb1EEmmEv", scope: !982, file: !176, line: 853, type: !1177, isLocal: false, isDefinition: false, scopeLine: 853, flags: DIFlagPrototyped, isOptimized: false)
!1194 = !DISubprogram(name: "operator++", linkageName: "_ZN11ap_int_baseILi9ELb1EEppEi", scope: !982, file: !176, line: 861, type: !1195, isLocal: false, isDefinition: false, scopeLine: 861, flags: DIFlagPrototyped, isOptimized: false)
!1195 = !DISubroutineType(types: !1196)
!1196 = !{!1197, !1005, !17}
!1197 = !DIDerivedType(tag: DW_TAG_const_type, baseType: !1198)
!1198 = !DIDerivedType(tag: DW_TAG_typedef, name: "arg1", scope: !1199, file: !176, line: 160, baseType: !1200)
!1199 = distinct !DICompositeType(tag: DW_TAG_structure_type, name: "RType<9, true>", scope: !982, file: !176, line: 127, size: 8, flags: DIFlagTypePassByValue, elements: !4, templateParams: !977, identifier: "_ZTSN11ap_int_baseILi9ELb1EE5RTypeILi9ELb1EEE")
!1200 = !DIDerivedType(tag: DW_TAG_typedef, name: "type", scope: !976, file: !176, line: 96, baseType: !979)
!1201 = !DISubprogram(name: "operator--", linkageName: "_ZN11ap_int_baseILi9ELb1EEmmEi", scope: !982, file: !176, line: 866, type: !1195, isLocal: false, isDefinition: false, scopeLine: 866, flags: DIFlagPrototyped, isOptimized: false)
!1202 = !DISubprogram(name: "operator+", linkageName: "_ZNK11ap_int_baseILi9ELb1EEpsEv", scope: !982, file: !176, line: 875, type: !1203, isLocal: false, isDefinition: false, scopeLine: 875, flags: DIFlagPrototyped, isOptimized: false)
!1203 = !DISubroutineType(types: !1204)
!1204 = !{!1198, !1000}
!1205 = !DISubprogram(name: "operator-", linkageName: "_ZNK11ap_int_baseILi9ELb1EEngEv", scope: !982, file: !176, line: 878, type: !1206, isLocal: false, isDefinition: false, scopeLine: 878, flags: DIFlagPrototyped, isOptimized: false)
!1206 = !DISubroutineType(types: !1207)
!1207 = !{!1208, !1000}
!1208 = !DIDerivedType(tag: DW_TAG_typedef, name: "minus", scope: !1209, file: !176, line: 156, baseType: !1210)
!1209 = distinct !DICompositeType(tag: DW_TAG_structure_type, name: "RType<1, false>", scope: !982, file: !176, line: 127, size: 8, flags: DIFlagTypePassByValue, elements: !4, templateParams: !504, identifier: "_ZTSN11ap_int_baseILi9ELb1EE5RTypeILi1ELb0EEE")
!1210 = !DIDerivedType(tag: DW_TAG_typedef, name: "type", scope: !1211, file: !176, line: 96, baseType: !1214)
!1211 = distinct !DICompositeType(tag: DW_TAG_structure_type, name: "_ap_int_factory<10, true>", file: !322, line: 142, size: 8, flags: DIFlagTypePassByValue, elements: !4, templateParams: !1212, identifier: "_ZTS15_ap_int_factoryILi10ELb1EE")
!1212 = !{!1213, !408}
!1213 = !DITemplateValueParameter(name: "_AP_W2", type: !17, value: i32 10)
!1214 = distinct !DICompositeType(tag: DW_TAG_structure_type, name: "ap_int<10>", file: !412, line: 17, size: 16, flags: DIFlagTypePassByValue, elements: !1215, templateParams: !3623, identifier: "_ZTS6ap_intILi10EE")
!1215 = !{!1216, !3545, !3549, !3553, !3556, !3559, !3562, !3565, !3568, !3571, !3574, !3577, !3580, !3583, !3586, !3589, !3592, !3595, !3598, !3601, !3604, !3610, !3616, !3620}
!1216 = !DIDerivedType(tag: DW_TAG_inheritance, scope: !1214, baseType: !1217)
!1217 = distinct !DICompositeType(tag: DW_TAG_structure_type, name: "ap_int_base<10, true>", file: !176, line: 101, size: 16, flags: DIFlagTypePassByValue, elements: !1218, templateParams: !3543, identifier: "_ZTS11ap_int_baseILi10ELb1EE")
!1218 = !{!1219, !1230, !1231, !1232, !1237, !1241, !1244, !1247, !1250, !1253, !1256, !1259, !1262, !1265, !1268, !1271, !1274, !1277, !1280, !1283, !1286, !1289, !1292, !1297, !1301, !1306, !1307, !1311, !1314, !1317, !1320, !1323, !1326, !1329, !1332, !1335, !1338, !1341, !1344, !1347, !1350, !1354, !1357, !1360, !1363, !1366, !1369, !1372, !1373, !1376, !1379, !1382, !1385, !1388, !1391, !1394, !1397, !1401, !1402, !1403, !1404, !1407, !1408, !1411, !1414, !1415, !1418, !1419, !1420, !1421, !1422, !1423, !1424, !1427, !1428, !1429, !1435, !1436, !1439, !3509, !3510, !3511, !3515, !3518, !3521, !3524, !3525, !3526, !3530, !3531, !3532, !3533, !3534, !3535, !3536, !3537, !3538, !3539, !3540}
!1219 = !DIDerivedType(tag: DW_TAG_inheritance, scope: !1217, baseType: !1220)
!1220 = distinct !DICompositeType(tag: DW_TAG_structure_type, name: "ssdm_int<10, true>", file: !32, line: 512, size: 16, flags: DIFlagTypePassByValue, elements: !1221, templateParams: !1228, identifier: "_ZTS8ssdm_intILi10ELb1EE")
!1221 = !{!1222, !1224}
!1222 = !DIDerivedType(tag: DW_TAG_member, name: "V", scope: !1220, file: !32, line: 513, baseType: !1223, size: 10, align: 16)
!1223 = !DIBasicType(name: "int10", size: 10, encoding: DW_ATE_signed)
!1224 = !DISubprogram(name: "ssdm_int", scope: !1220, file: !32, line: 514, type: !1225, isLocal: false, isDefinition: false, scopeLine: 514, flags: DIFlagPrototyped, isOptimized: false)
!1225 = !DISubroutineType(types: !1226)
!1226 = !{null, !1227}
!1227 = !DIDerivedType(tag: DW_TAG_pointer_type, baseType: !1220, size: 64, flags: DIFlagArtificial | DIFlagObjectPointer)
!1228 = !{!1229, !42}
!1229 = !DITemplateValueParameter(name: "_AP_N", type: !17, value: i32 10)
!1230 = !DIDerivedType(tag: DW_TAG_member, name: "width", scope: !1217, file: !176, line: 123, baseType: !45, flags: DIFlagStaticMember, extraData: i32 10)
!1231 = !DIDerivedType(tag: DW_TAG_member, name: "sign_flag", scope: !1217, file: !176, line: 124, baseType: !97, flags: DIFlagStaticMember, extraData: i1 true)
!1232 = !DISubprogram(name: "countLeadingOnes", linkageName: "_ZNK11ap_int_baseILi10ELb1EE16countLeadingOnesEv", scope: !1217, file: !176, line: 103, type: !1233, isLocal: false, isDefinition: false, scopeLine: 103, flags: DIFlagPrivate | DIFlagPrototyped, isOptimized: false)
!1233 = !DISubroutineType(types: !1234)
!1234 = !{!17, !1235}
!1235 = !DIDerivedType(tag: DW_TAG_pointer_type, baseType: !1236, size: 64, flags: DIFlagArtificial | DIFlagObjectPointer)
!1236 = !DIDerivedType(tag: DW_TAG_const_type, baseType: !1217)
!1237 = !DISubprogram(name: "ap_int_base", scope: !1217, file: !176, line: 168, type: !1238, isLocal: false, isDefinition: false, scopeLine: 168, flags: DIFlagPrototyped, isOptimized: false)
!1238 = !DISubroutineType(types: !1239)
!1239 = !{null, !1240}
!1240 = !DIDerivedType(tag: DW_TAG_pointer_type, baseType: !1217, size: 64, flags: DIFlagArtificial | DIFlagObjectPointer)
!1241 = !DISubprogram(name: "ap_int_base", scope: !1217, file: !176, line: 201, type: !1242, isLocal: false, isDefinition: false, scopeLine: 201, flags: DIFlagPrototyped, isOptimized: false)
!1242 = !DISubroutineType(types: !1243)
!1243 = !{null, !1240, !97}
!1244 = !DISubprogram(name: "ap_int_base", scope: !1217, file: !176, line: 202, type: !1245, isLocal: false, isDefinition: false, scopeLine: 202, flags: DIFlagPrototyped, isOptimized: false)
!1245 = !DISubroutineType(types: !1246)
!1246 = !{null, !1240, !88}
!1247 = !DISubprogram(name: "ap_int_base", scope: !1217, file: !176, line: 203, type: !1248, isLocal: false, isDefinition: false, scopeLine: 203, flags: DIFlagPrototyped, isOptimized: false)
!1248 = !DISubroutineType(types: !1249)
!1249 = !{null, !1240, !104}
!1250 = !DISubprogram(name: "ap_int_base", scope: !1217, file: !176, line: 204, type: !1251, isLocal: false, isDefinition: false, scopeLine: 204, flags: DIFlagPrototyped, isOptimized: false)
!1251 = !DISubroutineType(types: !1252)
!1252 = !{null, !1240, !108}
!1253 = !DISubprogram(name: "ap_int_base", scope: !1217, file: !176, line: 205, type: !1254, isLocal: false, isDefinition: false, scopeLine: 205, flags: DIFlagPrototyped, isOptimized: false)
!1254 = !DISubroutineType(types: !1255)
!1255 = !{null, !1240, !113}
!1256 = !DISubprogram(name: "ap_int_base", scope: !1217, file: !176, line: 206, type: !1257, isLocal: false, isDefinition: false, scopeLine: 206, flags: DIFlagPrototyped, isOptimized: false)
!1257 = !DISubroutineType(types: !1258)
!1258 = !{null, !1240, !117}
!1259 = !DISubprogram(name: "ap_int_base", scope: !1217, file: !176, line: 207, type: !1260, isLocal: false, isDefinition: false, scopeLine: 207, flags: DIFlagPrototyped, isOptimized: false)
!1260 = !DISubroutineType(types: !1261)
!1261 = !{null, !1240, !45}
!1262 = !DISubprogram(name: "ap_int_base", scope: !1217, file: !176, line: 208, type: !1263, isLocal: false, isDefinition: false, scopeLine: 208, flags: DIFlagPrototyped, isOptimized: false)
!1263 = !DISubroutineType(types: !1264)
!1264 = !{null, !1240, !125}
!1265 = !DISubprogram(name: "ap_int_base", scope: !1217, file: !176, line: 209, type: !1266, isLocal: false, isDefinition: false, scopeLine: 209, flags: DIFlagPrototyped, isOptimized: false)
!1266 = !DISubroutineType(types: !1267)
!1267 = !{null, !1240, !130}
!1268 = !DISubprogram(name: "ap_int_base", scope: !1217, file: !176, line: 210, type: !1269, isLocal: false, isDefinition: false, scopeLine: 210, flags: DIFlagPrototyped, isOptimized: false)
!1269 = !DISubroutineType(types: !1270)
!1270 = !{null, !1240, !135}
!1271 = !DISubprogram(name: "ap_int_base", scope: !1217, file: !176, line: 211, type: !1272, isLocal: false, isDefinition: false, scopeLine: 211, flags: DIFlagPrototyped, isOptimized: false)
!1272 = !DISubroutineType(types: !1273)
!1273 = !{null, !1240, !233}
!1274 = !DISubprogram(name: "ap_int_base", scope: !1217, file: !176, line: 212, type: !1275, isLocal: false, isDefinition: false, scopeLine: 212, flags: DIFlagPrototyped, isOptimized: false)
!1275 = !DISubroutineType(types: !1276)
!1276 = !{null, !1240, !239}
!1277 = !DISubprogram(name: "ap_int_base", scope: !1217, file: !176, line: 217, type: !1278, isLocal: false, isDefinition: false, scopeLine: 217, flags: DIFlagPrototyped, isOptimized: false)
!1278 = !DISubroutineType(types: !1279)
!1279 = !{null, !1240, !244}
!1280 = !DISubprogram(name: "ap_int_base", scope: !1217, file: !176, line: 223, type: !1281, isLocal: false, isDefinition: false, scopeLine: 223, flags: DIFlagPrototyped, isOptimized: false)
!1281 = !DISubroutineType(types: !1282)
!1282 = !{null, !1240, !156}
!1283 = !DISubprogram(name: "ap_int_base", scope: !1217, file: !176, line: 282, type: !1284, isLocal: false, isDefinition: false, scopeLine: 282, flags: DIFlagPrototyped, isOptimized: false)
!1284 = !DISubroutineType(types: !1285)
!1285 = !{null, !1240, !152}
!1286 = !DISubprogram(name: "ap_int_base", scope: !1217, file: !176, line: 378, type: !1287, isLocal: false, isDefinition: false, scopeLine: 378, flags: DIFlagPrototyped, isOptimized: false)
!1287 = !DISubroutineType(types: !1288)
!1288 = !{null, !1240, !87}
!1289 = !DISubprogram(name: "ap_int_base", scope: !1217, file: !176, line: 384, type: !1290, isLocal: false, isDefinition: false, scopeLine: 384, flags: DIFlagPrototyped, isOptimized: false)
!1290 = !DISubroutineType(types: !1291)
!1291 = !{null, !1240, !87, !93}
!1292 = !DISubprogram(name: "read", linkageName: "_ZNV11ap_int_baseILi10ELb1EE4readEv", scope: !1217, file: !176, line: 406, type: !1293, isLocal: false, isDefinition: false, scopeLine: 406, flags: DIFlagPrototyped, isOptimized: false)
!1293 = !DISubroutineType(types: !1294)
!1294 = !{!1217, !1295}
!1295 = !DIDerivedType(tag: DW_TAG_pointer_type, baseType: !1296, size: 64, flags: DIFlagArtificial | DIFlagObjectPointer)
!1296 = !DIDerivedType(tag: DW_TAG_volatile_type, baseType: !1217)
!1297 = !DISubprogram(name: "write", linkageName: "_ZNV11ap_int_baseILi10ELb1EE5writeERKS0_", scope: !1217, file: !176, line: 413, type: !1298, isLocal: false, isDefinition: false, scopeLine: 413, flags: DIFlagPrototyped, isOptimized: false)
!1298 = !DISubroutineType(types: !1299)
!1299 = !{null, !1295, !1300}
!1300 = !DIDerivedType(tag: DW_TAG_reference_type, baseType: !1236, size: 64)
!1301 = !DISubprogram(name: "operator=", linkageName: "_ZNV11ap_int_baseILi10ELb1EEaSERVKS0_", scope: !1217, file: !176, line: 425, type: !1302, isLocal: false, isDefinition: false, scopeLine: 425, flags: DIFlagPrototyped, isOptimized: false)
!1302 = !DISubroutineType(types: !1303)
!1303 = !{null, !1295, !1304}
!1304 = !DIDerivedType(tag: DW_TAG_reference_type, baseType: !1305, size: 64)
!1305 = !DIDerivedType(tag: DW_TAG_const_type, baseType: !1296)
!1306 = !DISubprogram(name: "operator=", linkageName: "_ZNV11ap_int_baseILi10ELb1EEaSERKS0_", scope: !1217, file: !176, line: 435, type: !1298, isLocal: false, isDefinition: false, scopeLine: 435, flags: DIFlagPrototyped, isOptimized: false)
!1307 = !DISubprogram(name: "operator=", linkageName: "_ZN11ap_int_baseILi10ELb1EEaSERVKS0_", scope: !1217, file: !176, line: 452, type: !1308, isLocal: false, isDefinition: false, scopeLine: 452, flags: DIFlagPrototyped, isOptimized: false)
!1308 = !DISubroutineType(types: !1309)
!1309 = !{!1310, !1240, !1304}
!1310 = !DIDerivedType(tag: DW_TAG_reference_type, baseType: !1217, size: 64)
!1311 = !DISubprogram(name: "operator=", linkageName: "_ZN11ap_int_baseILi10ELb1EEaSERKS0_", scope: !1217, file: !176, line: 457, type: !1312, isLocal: false, isDefinition: false, scopeLine: 457, flags: DIFlagPrototyped, isOptimized: false)
!1312 = !DISubroutineType(types: !1313)
!1313 = !{!1310, !1240, !1300}
!1314 = !DISubprogram(name: "operator=", linkageName: "_ZN11ap_int_baseILi10ELb1EEaSEb", scope: !1217, file: !176, line: 465, type: !1315, isLocal: false, isDefinition: false, scopeLine: 465, flags: DIFlagPrototyped, isOptimized: false)
!1315 = !DISubroutineType(types: !1316)
!1316 = !{!1310, !1240, !43}
!1317 = !DISubprogram(name: "operator=", linkageName: "_ZN11ap_int_baseILi10ELb1EEaSEc", scope: !1217, file: !176, line: 466, type: !1318, isLocal: false, isDefinition: false, scopeLine: 466, flags: DIFlagPrototyped, isOptimized: false)
!1318 = !DISubroutineType(types: !1319)
!1319 = !{!1310, !1240, !89}
!1320 = !DISubprogram(name: "operator=", linkageName: "_ZN11ap_int_baseILi10ELb1EEaSEa", scope: !1217, file: !176, line: 467, type: !1321, isLocal: false, isDefinition: false, scopeLine: 467, flags: DIFlagPrototyped, isOptimized: false)
!1321 = !DISubroutineType(types: !1322)
!1322 = !{!1310, !1240, !93}
!1323 = !DISubprogram(name: "operator=", linkageName: "_ZN11ap_int_baseILi10ELb1EEaSEh", scope: !1217, file: !176, line: 468, type: !1324, isLocal: false, isDefinition: false, scopeLine: 468, flags: DIFlagPrototyped, isOptimized: false)
!1324 = !DISubroutineType(types: !1325)
!1325 = !{!1310, !1240, !109}
!1326 = !DISubprogram(name: "operator=", linkageName: "_ZN11ap_int_baseILi10ELb1EEaSEs", scope: !1217, file: !176, line: 469, type: !1327, isLocal: false, isDefinition: false, scopeLine: 469, flags: DIFlagPrototyped, isOptimized: false)
!1327 = !DISubroutineType(types: !1328)
!1328 = !{!1310, !1240, !35}
!1329 = !DISubprogram(name: "operator=", linkageName: "_ZN11ap_int_baseILi10ELb1EEaSEt", scope: !1217, file: !176, line: 470, type: !1330, isLocal: false, isDefinition: false, scopeLine: 470, flags: DIFlagPrototyped, isOptimized: false)
!1330 = !DISubroutineType(types: !1331)
!1331 = !{!1310, !1240, !118}
!1332 = !DISubprogram(name: "operator=", linkageName: "_ZN11ap_int_baseILi10ELb1EEaSEi", scope: !1217, file: !176, line: 471, type: !1333, isLocal: false, isDefinition: false, scopeLine: 471, flags: DIFlagPrototyped, isOptimized: false)
!1333 = !DISubroutineType(types: !1334)
!1334 = !{!1310, !1240, !17}
!1335 = !DISubprogram(name: "operator=", linkageName: "_ZN11ap_int_baseILi10ELb1EEaSEj", scope: !1217, file: !176, line: 472, type: !1336, isLocal: false, isDefinition: false, scopeLine: 472, flags: DIFlagPrototyped, isOptimized: false)
!1336 = !DISubroutineType(types: !1337)
!1337 = !{!1310, !1240, !126}
!1338 = !DISubprogram(name: "operator=", linkageName: "_ZN11ap_int_baseILi10ELb1EEaSEl", scope: !1217, file: !176, line: 473, type: !1339, isLocal: false, isDefinition: false, scopeLine: 473, flags: DIFlagPrototyped, isOptimized: false)
!1339 = !DISubroutineType(types: !1340)
!1340 = !{!1310, !1240, !131}
!1341 = !DISubprogram(name: "operator=", linkageName: "_ZN11ap_int_baseILi10ELb1EEaSEm", scope: !1217, file: !176, line: 474, type: !1342, isLocal: false, isDefinition: false, scopeLine: 474, flags: DIFlagPrototyped, isOptimized: false)
!1342 = !DISubroutineType(types: !1343)
!1343 = !{!1310, !1240, !136}
!1344 = !DISubprogram(name: "operator=", linkageName: "_ZN11ap_int_baseILi10ELb1EEaSEx", scope: !1217, file: !176, line: 475, type: !1345, isLocal: false, isDefinition: false, scopeLine: 475, flags: DIFlagPrototyped, isOptimized: false)
!1345 = !DISubroutineType(types: !1346)
!1346 = !{!1310, !1240, !234}
!1347 = !DISubprogram(name: "operator=", linkageName: "_ZN11ap_int_baseILi10ELb1EEaSEy", scope: !1217, file: !176, line: 476, type: !1348, isLocal: false, isDefinition: false, scopeLine: 476, flags: DIFlagPrototyped, isOptimized: false)
!1348 = !DISubroutineType(types: !1349)
!1349 = !{!1310, !1240, !240}
!1350 = !DISubprogram(name: "operator long long", linkageName: "_ZNK11ap_int_baseILi10ELb1EEcvxEv", scope: !1217, file: !176, line: 527, type: !1351, isLocal: false, isDefinition: false, scopeLine: 527, flags: DIFlagPrototyped, isOptimized: false)
!1351 = !DISubroutineType(types: !1352)
!1352 = !{!1353, !1235}
!1353 = !DIDerivedType(tag: DW_TAG_typedef, name: "RetType", scope: !1217, file: !176, line: 121, baseType: !320)
!1354 = !DISubprogram(name: "to_bool", linkageName: "_ZNK11ap_int_baseILi10ELb1EE7to_boolEv", scope: !1217, file: !176, line: 532, type: !1355, isLocal: false, isDefinition: false, scopeLine: 532, flags: DIFlagPrototyped, isOptimized: false)
!1355 = !DISubroutineType(types: !1356)
!1356 = !{!43, !1235}
!1357 = !DISubprogram(name: "to_char", linkageName: "_ZNK11ap_int_baseILi10ELb1EE7to_charEv", scope: !1217, file: !176, line: 533, type: !1358, isLocal: false, isDefinition: false, scopeLine: 533, flags: DIFlagPrototyped, isOptimized: false)
!1358 = !DISubroutineType(types: !1359)
!1359 = !{!89, !1235}
!1360 = !DISubprogram(name: "to_schar", linkageName: "_ZNK11ap_int_baseILi10ELb1EE8to_scharEv", scope: !1217, file: !176, line: 534, type: !1361, isLocal: false, isDefinition: false, scopeLine: 534, flags: DIFlagPrototyped, isOptimized: false)
!1361 = !DISubroutineType(types: !1362)
!1362 = !{!93, !1235}
!1363 = !DISubprogram(name: "to_uchar", linkageName: "_ZNK11ap_int_baseILi10ELb1EE8to_ucharEv", scope: !1217, file: !176, line: 535, type: !1364, isLocal: false, isDefinition: false, scopeLine: 535, flags: DIFlagPrototyped, isOptimized: false)
!1364 = !DISubroutineType(types: !1365)
!1365 = !{!109, !1235}
!1366 = !DISubprogram(name: "to_short", linkageName: "_ZNK11ap_int_baseILi10ELb1EE8to_shortEv", scope: !1217, file: !176, line: 536, type: !1367, isLocal: false, isDefinition: false, scopeLine: 536, flags: DIFlagPrototyped, isOptimized: false)
!1367 = !DISubroutineType(types: !1368)
!1368 = !{!35, !1235}
!1369 = !DISubprogram(name: "to_ushort", linkageName: "_ZNK11ap_int_baseILi10ELb1EE9to_ushortEv", scope: !1217, file: !176, line: 537, type: !1370, isLocal: false, isDefinition: false, scopeLine: 537, flags: DIFlagPrototyped, isOptimized: false)
!1370 = !DISubroutineType(types: !1371)
!1371 = !{!118, !1235}
!1372 = !DISubprogram(name: "to_int", linkageName: "_ZNK11ap_int_baseILi10ELb1EE6to_intEv", scope: !1217, file: !176, line: 538, type: !1233, isLocal: false, isDefinition: false, scopeLine: 538, flags: DIFlagPrototyped, isOptimized: false)
!1373 = !DISubprogram(name: "to_uint", linkageName: "_ZNK11ap_int_baseILi10ELb1EE7to_uintEv", scope: !1217, file: !176, line: 539, type: !1374, isLocal: false, isDefinition: false, scopeLine: 539, flags: DIFlagPrototyped, isOptimized: false)
!1374 = !DISubroutineType(types: !1375)
!1375 = !{!126, !1235}
!1376 = !DISubprogram(name: "to_long", linkageName: "_ZNK11ap_int_baseILi10ELb1EE7to_longEv", scope: !1217, file: !176, line: 540, type: !1377, isLocal: false, isDefinition: false, scopeLine: 540, flags: DIFlagPrototyped, isOptimized: false)
!1377 = !DISubroutineType(types: !1378)
!1378 = !{!131, !1235}
!1379 = !DISubprogram(name: "to_ulong", linkageName: "_ZNK11ap_int_baseILi10ELb1EE8to_ulongEv", scope: !1217, file: !176, line: 541, type: !1380, isLocal: false, isDefinition: false, scopeLine: 541, flags: DIFlagPrototyped, isOptimized: false)
!1380 = !DISubroutineType(types: !1381)
!1381 = !{!136, !1235}
!1382 = !DISubprogram(name: "to_int64", linkageName: "_ZNK11ap_int_baseILi10ELb1EE8to_int64Ev", scope: !1217, file: !176, line: 542, type: !1383, isLocal: false, isDefinition: false, scopeLine: 542, flags: DIFlagPrototyped, isOptimized: false)
!1383 = !DISubroutineType(types: !1384)
!1384 = !{!234, !1235}
!1385 = !DISubprogram(name: "to_uint64", linkageName: "_ZNK11ap_int_baseILi10ELb1EE9to_uint64Ev", scope: !1217, file: !176, line: 543, type: !1386, isLocal: false, isDefinition: false, scopeLine: 543, flags: DIFlagPrototyped, isOptimized: false)
!1386 = !DISubroutineType(types: !1387)
!1387 = !{!240, !1235}
!1388 = !DISubprogram(name: "to_half", linkageName: "_ZNK11ap_int_baseILi10ELb1EE7to_halfEv", scope: !1217, file: !176, line: 544, type: !1389, isLocal: false, isDefinition: false, scopeLine: 544, flags: DIFlagPrototyped, isOptimized: false)
!1389 = !DISubroutineType(types: !1390)
!1390 = !{!244, !1235}
!1391 = !DISubprogram(name: "to_float", linkageName: "_ZNK11ap_int_baseILi10ELb1EE8to_floatEv", scope: !1217, file: !176, line: 545, type: !1392, isLocal: false, isDefinition: false, scopeLine: 545, flags: DIFlagPrototyped, isOptimized: false)
!1392 = !DISubroutineType(types: !1393)
!1393 = !{!156, !1235}
!1394 = !DISubprogram(name: "to_double", linkageName: "_ZNK11ap_int_baseILi10ELb1EE9to_doubleEv", scope: !1217, file: !176, line: 546, type: !1395, isLocal: false, isDefinition: false, scopeLine: 546, flags: DIFlagPrototyped, isOptimized: false)
!1395 = !DISubroutineType(types: !1396)
!1396 = !{!152, !1235}
!1397 = !DISubprogram(name: "length", linkageName: "_ZNVK11ap_int_baseILi10ELb1EE6lengthEv", scope: !1217, file: !176, line: 570, type: !1398, isLocal: false, isDefinition: false, scopeLine: 570, flags: DIFlagPrototyped, isOptimized: false)
!1398 = !DISubroutineType(types: !1399)
!1399 = !{!17, !1400}
!1400 = !DIDerivedType(tag: DW_TAG_pointer_type, baseType: !1305, size: 64, flags: DIFlagArtificial | DIFlagObjectPointer)
!1401 = !DISubprogram(name: "iszero", linkageName: "_ZNK11ap_int_baseILi10ELb1EE6iszeroEv", scope: !1217, file: !176, line: 573, type: !1355, isLocal: false, isDefinition: false, scopeLine: 573, flags: DIFlagPrototyped, isOptimized: false)
!1402 = !DISubprogram(name: "is_zero", linkageName: "_ZNK11ap_int_baseILi10ELb1EE7is_zeroEv", scope: !1217, file: !176, line: 576, type: !1355, isLocal: false, isDefinition: false, scopeLine: 576, flags: DIFlagPrototyped, isOptimized: false)
!1403 = !DISubprogram(name: "sign", linkageName: "_ZNK11ap_int_baseILi10ELb1EE4signEv", scope: !1217, file: !176, line: 579, type: !1355, isLocal: false, isDefinition: false, scopeLine: 579, flags: DIFlagPrototyped, isOptimized: false)
!1404 = !DISubprogram(name: "clear", linkageName: "_ZN11ap_int_baseILi10ELb1EE5clearEi", scope: !1217, file: !176, line: 588, type: !1405, isLocal: false, isDefinition: false, scopeLine: 588, flags: DIFlagPrototyped, isOptimized: false)
!1405 = !DISubroutineType(types: !1406)
!1406 = !{null, !1240, !17}
!1407 = !DISubprogram(name: "invert", linkageName: "_ZN11ap_int_baseILi10ELb1EE6invertEi", scope: !1217, file: !176, line: 594, type: !1405, isLocal: false, isDefinition: false, scopeLine: 594, flags: DIFlagPrototyped, isOptimized: false)
!1408 = !DISubprogram(name: "test", linkageName: "_ZNK11ap_int_baseILi10ELb1EE4testEi", scope: !1217, file: !176, line: 603, type: !1409, isLocal: false, isDefinition: false, scopeLine: 603, flags: DIFlagPrototyped, isOptimized: false)
!1409 = !DISubroutineType(types: !1410)
!1410 = !{!43, !1235, !17}
!1411 = !DISubprogram(name: "get", linkageName: "_ZN11ap_int_baseILi10ELb1EE3getEv", scope: !1217, file: !176, line: 609, type: !1412, isLocal: false, isDefinition: false, scopeLine: 609, flags: DIFlagPrototyped, isOptimized: false)
!1412 = !DISubroutineType(types: !1413)
!1413 = !{!1310, !1240}
!1414 = !DISubprogram(name: "set", linkageName: "_ZN11ap_int_baseILi10ELb1EE3setEi", scope: !1217, file: !176, line: 612, type: !1405, isLocal: false, isDefinition: false, scopeLine: 612, flags: DIFlagPrototyped, isOptimized: false)
!1415 = !DISubprogram(name: "set", linkageName: "_ZN11ap_int_baseILi10ELb1EE3setEib", scope: !1217, file: !176, line: 618, type: !1416, isLocal: false, isDefinition: false, scopeLine: 618, flags: DIFlagPrototyped, isOptimized: false)
!1416 = !DISubroutineType(types: !1417)
!1417 = !{null, !1240, !17, !43}
!1418 = !DISubprogram(name: "lrotate", linkageName: "_ZN11ap_int_baseILi10ELb1EE7lrotateEi", scope: !1217, file: !176, line: 625, type: !1333, isLocal: false, isDefinition: false, scopeLine: 625, flags: DIFlagPrototyped, isOptimized: false)
!1419 = !DISubprogram(name: "rrotate", linkageName: "_ZN11ap_int_baseILi10ELb1EE7rrotateEi", scope: !1217, file: !176, line: 640, type: !1333, isLocal: false, isDefinition: false, scopeLine: 640, flags: DIFlagPrototyped, isOptimized: false)
!1420 = !DISubprogram(name: "reverse", linkageName: "_ZN11ap_int_baseILi10ELb1EE7reverseEv", scope: !1217, file: !176, line: 655, type: !1412, isLocal: false, isDefinition: false, scopeLine: 655, flags: DIFlagPrototyped, isOptimized: false)
!1421 = !DISubprogram(name: "set_bit", linkageName: "_ZN11ap_int_baseILi10ELb1EE7set_bitEib", scope: !1217, file: !176, line: 661, type: !1416, isLocal: false, isDefinition: false, scopeLine: 661, flags: DIFlagPrototyped, isOptimized: false)
!1422 = !DISubprogram(name: "get_bit", linkageName: "_ZNK11ap_int_baseILi10ELb1EE7get_bitEi", scope: !1217, file: !176, line: 666, type: !1409, isLocal: false, isDefinition: false, scopeLine: 666, flags: DIFlagPrototyped, isOptimized: false)
!1423 = !DISubprogram(name: "b_not", linkageName: "_ZN11ap_int_baseILi10ELb1EE5b_notEv", scope: !1217, file: !176, line: 671, type: !1238, isLocal: false, isDefinition: false, scopeLine: 671, flags: DIFlagPrototyped, isOptimized: false)
!1424 = !DISubprogram(name: "checkOverflowCsim", linkageName: "_ZNK11ap_int_baseILi10ELb1EE17checkOverflowCsimEibb", scope: !1217, file: !176, line: 745, type: !1425, isLocal: false, isDefinition: false, scopeLine: 745, flags: DIFlagPrototyped, isOptimized: false)
!1425 = !DISubroutineType(types: !1426)
!1426 = !{!43, !1235, !17, !43, !43}
!1427 = !DISubprogram(name: "operator++", linkageName: "_ZN11ap_int_baseILi10ELb1EEppEv", scope: !1217, file: !176, line: 849, type: !1412, isLocal: false, isDefinition: false, scopeLine: 849, flags: DIFlagPrototyped, isOptimized: false)
!1428 = !DISubprogram(name: "operator--", linkageName: "_ZN11ap_int_baseILi10ELb1EEmmEv", scope: !1217, file: !176, line: 853, type: !1412, isLocal: false, isDefinition: false, scopeLine: 853, flags: DIFlagPrototyped, isOptimized: false)
!1429 = !DISubprogram(name: "operator++", linkageName: "_ZN11ap_int_baseILi10ELb1EEppEi", scope: !1217, file: !176, line: 861, type: !1430, isLocal: false, isDefinition: false, scopeLine: 861, flags: DIFlagPrototyped, isOptimized: false)
!1430 = !DISubroutineType(types: !1431)
!1431 = !{!1432, !1240, !17}
!1432 = !DIDerivedType(tag: DW_TAG_const_type, baseType: !1433)
!1433 = !DIDerivedType(tag: DW_TAG_typedef, name: "arg1", scope: !1434, file: !176, line: 160, baseType: !1210)
!1434 = distinct !DICompositeType(tag: DW_TAG_structure_type, name: "RType<10, true>", scope: !1217, file: !176, line: 127, size: 8, flags: DIFlagTypePassByValue, elements: !4, templateParams: !1212, identifier: "_ZTSN11ap_int_baseILi10ELb1EE5RTypeILi10ELb1EEE")
!1435 = !DISubprogram(name: "operator--", linkageName: "_ZN11ap_int_baseILi10ELb1EEmmEi", scope: !1217, file: !176, line: 866, type: !1430, isLocal: false, isDefinition: false, scopeLine: 866, flags: DIFlagPrototyped, isOptimized: false)
!1436 = !DISubprogram(name: "operator+", linkageName: "_ZNK11ap_int_baseILi10ELb1EEpsEv", scope: !1217, file: !176, line: 875, type: !1437, isLocal: false, isDefinition: false, scopeLine: 875, flags: DIFlagPrototyped, isOptimized: false)
!1437 = !DISubroutineType(types: !1438)
!1438 = !{!1433, !1235}
!1439 = !DISubprogram(name: "operator-", linkageName: "_ZNK11ap_int_baseILi10ELb1EEngEv", scope: !1217, file: !176, line: 878, type: !1440, isLocal: false, isDefinition: false, scopeLine: 878, flags: DIFlagPrototyped, isOptimized: false)
!1440 = !DISubroutineType(types: !1441)
!1441 = !{!1442, !1235}
!1442 = !DIDerivedType(tag: DW_TAG_typedef, name: "minus", scope: !1443, file: !176, line: 156, baseType: !1444)
!1443 = distinct !DICompositeType(tag: DW_TAG_structure_type, name: "RType<1, false>", scope: !1217, file: !176, line: 127, size: 8, flags: DIFlagTypePassByValue, elements: !4, templateParams: !504, identifier: "_ZTSN11ap_int_baseILi10ELb1EE5RTypeILi1ELb0EEE")
!1444 = !DIDerivedType(tag: DW_TAG_typedef, name: "type", scope: !1445, file: !176, line: 96, baseType: !1448)
!1445 = distinct !DICompositeType(tag: DW_TAG_structure_type, name: "_ap_int_factory<11, true>", file: !176, line: 96, size: 8, flags: DIFlagTypePassByValue, elements: !4, templateParams: !1446, identifier: "_ZTS15_ap_int_factoryILi11ELb1EE")
!1446 = !{!1447, !408}
!1447 = !DITemplateValueParameter(name: "_AP_W2", type: !17, value: i32 11)
!1448 = distinct !DICompositeType(tag: DW_TAG_structure_type, name: "ap_int<11>", file: !412, line: 17, size: 16, flags: DIFlagTypePassByValue, elements: !1449, templateParams: !3508, identifier: "_ZTS6ap_intILi11EE")
!1449 = !{!1450, !3430, !3434, !3438, !3441, !3444, !3447, !3450, !3453, !3456, !3459, !3462, !3465, !3468, !3471, !3474, !3477, !3480, !3483, !3486, !3489, !3495, !3501, !3505}
!1450 = !DIDerivedType(tag: DW_TAG_inheritance, scope: !1448, baseType: !1451)
!1451 = distinct !DICompositeType(tag: DW_TAG_structure_type, name: "ap_int_base<11, true>", file: !176, line: 101, size: 16, flags: DIFlagTypePassByValue, elements: !1452, templateParams: !3428, identifier: "_ZTS11ap_int_baseILi11ELb1EE")
!1452 = !{!1453, !1464, !1465, !1466, !1471, !1475, !1478, !1481, !1484, !1487, !1490, !1493, !1496, !1499, !1502, !1505, !1508, !1511, !1514, !1517, !1520, !1523, !1526, !1531, !1535, !1540, !1541, !1545, !1548, !1551, !1554, !1557, !1560, !1563, !1566, !1569, !1572, !1575, !1578, !1581, !1584, !1588, !1591, !1594, !1597, !1600, !1603, !1606, !1607, !1610, !1613, !1616, !1619, !1622, !1625, !1628, !1631, !1635, !1636, !1637, !1638, !1641, !1642, !1645, !1648, !1649, !1652, !1653, !1654, !1655, !1656, !1657, !1658, !1661, !1662, !1663, !1669, !1670, !1673, !3394, !3395, !3396, !3400, !3403, !3406, !3409, !3410, !3411, !3415, !3416, !3417, !3418, !3419, !3420, !3421, !3422, !3423, !3424, !3425}
!1453 = !DIDerivedType(tag: DW_TAG_inheritance, scope: !1451, baseType: !1454)
!1454 = distinct !DICompositeType(tag: DW_TAG_structure_type, name: "ssdm_int<11, true>", file: !245, line: 466, size: 16, flags: DIFlagTypePassByValue, elements: !1455, templateParams: !1462, identifier: "_ZTS8ssdm_intILi11ELb1EE")
!1455 = !{!1456, !1458}
!1456 = !DIDerivedType(tag: DW_TAG_member, name: "V", scope: !1454, file: !245, line: 467, baseType: !1457, size: 11, align: 16)
!1457 = !DIBasicType(name: "int11", size: 11, encoding: DW_ATE_signed)
!1458 = !DISubprogram(name: "ssdm_int", scope: !1454, file: !245, line: 468, type: !1459, isLocal: false, isDefinition: false, scopeLine: 468, flags: DIFlagPrototyped, isOptimized: false)
!1459 = !DISubroutineType(types: !1460)
!1460 = !{null, !1461}
!1461 = !DIDerivedType(tag: DW_TAG_pointer_type, baseType: !1454, size: 64, flags: DIFlagArtificial | DIFlagObjectPointer)
!1462 = !{!1463, !42}
!1463 = !DITemplateValueParameter(name: "_AP_N", type: !17, value: i32 11)
!1464 = !DIDerivedType(tag: DW_TAG_member, name: "width", scope: !1451, file: !176, line: 123, baseType: !45, flags: DIFlagStaticMember, extraData: i32 11)
!1465 = !DIDerivedType(tag: DW_TAG_member, name: "sign_flag", scope: !1451, file: !176, line: 124, baseType: !97, flags: DIFlagStaticMember, extraData: i1 true)
!1466 = !DISubprogram(name: "countLeadingOnes", linkageName: "_ZNK11ap_int_baseILi11ELb1EE16countLeadingOnesEv", scope: !1451, file: !176, line: 103, type: !1467, isLocal: false, isDefinition: false, scopeLine: 103, flags: DIFlagPrivate | DIFlagPrototyped, isOptimized: false)
!1467 = !DISubroutineType(types: !1468)
!1468 = !{!17, !1469}
!1469 = !DIDerivedType(tag: DW_TAG_pointer_type, baseType: !1470, size: 64, flags: DIFlagArtificial | DIFlagObjectPointer)
!1470 = !DIDerivedType(tag: DW_TAG_const_type, baseType: !1451)
!1471 = !DISubprogram(name: "ap_int_base", scope: !1451, file: !176, line: 168, type: !1472, isLocal: false, isDefinition: false, scopeLine: 168, flags: DIFlagPrototyped, isOptimized: false)
!1472 = !DISubroutineType(types: !1473)
!1473 = !{null, !1474}
!1474 = !DIDerivedType(tag: DW_TAG_pointer_type, baseType: !1451, size: 64, flags: DIFlagArtificial | DIFlagObjectPointer)
!1475 = !DISubprogram(name: "ap_int_base", scope: !1451, file: !176, line: 201, type: !1476, isLocal: false, isDefinition: false, scopeLine: 201, flags: DIFlagPrototyped, isOptimized: false)
!1476 = !DISubroutineType(types: !1477)
!1477 = !{null, !1474, !97}
!1478 = !DISubprogram(name: "ap_int_base", scope: !1451, file: !176, line: 202, type: !1479, isLocal: false, isDefinition: false, scopeLine: 202, flags: DIFlagPrototyped, isOptimized: false)
!1479 = !DISubroutineType(types: !1480)
!1480 = !{null, !1474, !88}
!1481 = !DISubprogram(name: "ap_int_base", scope: !1451, file: !176, line: 203, type: !1482, isLocal: false, isDefinition: false, scopeLine: 203, flags: DIFlagPrototyped, isOptimized: false)
!1482 = !DISubroutineType(types: !1483)
!1483 = !{null, !1474, !104}
!1484 = !DISubprogram(name: "ap_int_base", scope: !1451, file: !176, line: 204, type: !1485, isLocal: false, isDefinition: false, scopeLine: 204, flags: DIFlagPrototyped, isOptimized: false)
!1485 = !DISubroutineType(types: !1486)
!1486 = !{null, !1474, !108}
!1487 = !DISubprogram(name: "ap_int_base", scope: !1451, file: !176, line: 205, type: !1488, isLocal: false, isDefinition: false, scopeLine: 205, flags: DIFlagPrototyped, isOptimized: false)
!1488 = !DISubroutineType(types: !1489)
!1489 = !{null, !1474, !113}
!1490 = !DISubprogram(name: "ap_int_base", scope: !1451, file: !176, line: 206, type: !1491, isLocal: false, isDefinition: false, scopeLine: 206, flags: DIFlagPrototyped, isOptimized: false)
!1491 = !DISubroutineType(types: !1492)
!1492 = !{null, !1474, !117}
!1493 = !DISubprogram(name: "ap_int_base", scope: !1451, file: !176, line: 207, type: !1494, isLocal: false, isDefinition: false, scopeLine: 207, flags: DIFlagPrototyped, isOptimized: false)
!1494 = !DISubroutineType(types: !1495)
!1495 = !{null, !1474, !45}
!1496 = !DISubprogram(name: "ap_int_base", scope: !1451, file: !176, line: 208, type: !1497, isLocal: false, isDefinition: false, scopeLine: 208, flags: DIFlagPrototyped, isOptimized: false)
!1497 = !DISubroutineType(types: !1498)
!1498 = !{null, !1474, !125}
!1499 = !DISubprogram(name: "ap_int_base", scope: !1451, file: !176, line: 209, type: !1500, isLocal: false, isDefinition: false, scopeLine: 209, flags: DIFlagPrototyped, isOptimized: false)
!1500 = !DISubroutineType(types: !1501)
!1501 = !{null, !1474, !130}
!1502 = !DISubprogram(name: "ap_int_base", scope: !1451, file: !176, line: 210, type: !1503, isLocal: false, isDefinition: false, scopeLine: 210, flags: DIFlagPrototyped, isOptimized: false)
!1503 = !DISubroutineType(types: !1504)
!1504 = !{null, !1474, !135}
!1505 = !DISubprogram(name: "ap_int_base", scope: !1451, file: !176, line: 211, type: !1506, isLocal: false, isDefinition: false, scopeLine: 211, flags: DIFlagPrototyped, isOptimized: false)
!1506 = !DISubroutineType(types: !1507)
!1507 = !{null, !1474, !233}
!1508 = !DISubprogram(name: "ap_int_base", scope: !1451, file: !176, line: 212, type: !1509, isLocal: false, isDefinition: false, scopeLine: 212, flags: DIFlagPrototyped, isOptimized: false)
!1509 = !DISubroutineType(types: !1510)
!1510 = !{null, !1474, !239}
!1511 = !DISubprogram(name: "ap_int_base", scope: !1451, file: !176, line: 217, type: !1512, isLocal: false, isDefinition: false, scopeLine: 217, flags: DIFlagPrototyped, isOptimized: false)
!1512 = !DISubroutineType(types: !1513)
!1513 = !{null, !1474, !244}
!1514 = !DISubprogram(name: "ap_int_base", scope: !1451, file: !176, line: 223, type: !1515, isLocal: false, isDefinition: false, scopeLine: 223, flags: DIFlagPrototyped, isOptimized: false)
!1515 = !DISubroutineType(types: !1516)
!1516 = !{null, !1474, !156}
!1517 = !DISubprogram(name: "ap_int_base", scope: !1451, file: !176, line: 282, type: !1518, isLocal: false, isDefinition: false, scopeLine: 282, flags: DIFlagPrototyped, isOptimized: false)
!1518 = !DISubroutineType(types: !1519)
!1519 = !{null, !1474, !152}
!1520 = !DISubprogram(name: "ap_int_base", scope: !1451, file: !176, line: 378, type: !1521, isLocal: false, isDefinition: false, scopeLine: 378, flags: DIFlagPrototyped, isOptimized: false)
!1521 = !DISubroutineType(types: !1522)
!1522 = !{null, !1474, !87}
!1523 = !DISubprogram(name: "ap_int_base", scope: !1451, file: !176, line: 384, type: !1524, isLocal: false, isDefinition: false, scopeLine: 384, flags: DIFlagPrototyped, isOptimized: false)
!1524 = !DISubroutineType(types: !1525)
!1525 = !{null, !1474, !87, !93}
!1526 = !DISubprogram(name: "read", linkageName: "_ZNV11ap_int_baseILi11ELb1EE4readEv", scope: !1451, file: !176, line: 406, type: !1527, isLocal: false, isDefinition: false, scopeLine: 406, flags: DIFlagPrototyped, isOptimized: false)
!1527 = !DISubroutineType(types: !1528)
!1528 = !{!1451, !1529}
!1529 = !DIDerivedType(tag: DW_TAG_pointer_type, baseType: !1530, size: 64, flags: DIFlagArtificial | DIFlagObjectPointer)
!1530 = !DIDerivedType(tag: DW_TAG_volatile_type, baseType: !1451)
!1531 = !DISubprogram(name: "write", linkageName: "_ZNV11ap_int_baseILi11ELb1EE5writeERKS0_", scope: !1451, file: !176, line: 413, type: !1532, isLocal: false, isDefinition: false, scopeLine: 413, flags: DIFlagPrototyped, isOptimized: false)
!1532 = !DISubroutineType(types: !1533)
!1533 = !{null, !1529, !1534}
!1534 = !DIDerivedType(tag: DW_TAG_reference_type, baseType: !1470, size: 64)
!1535 = !DISubprogram(name: "operator=", linkageName: "_ZNV11ap_int_baseILi11ELb1EEaSERVKS0_", scope: !1451, file: !176, line: 425, type: !1536, isLocal: false, isDefinition: false, scopeLine: 425, flags: DIFlagPrototyped, isOptimized: false)
!1536 = !DISubroutineType(types: !1537)
!1537 = !{null, !1529, !1538}
!1538 = !DIDerivedType(tag: DW_TAG_reference_type, baseType: !1539, size: 64)
!1539 = !DIDerivedType(tag: DW_TAG_const_type, baseType: !1530)
!1540 = !DISubprogram(name: "operator=", linkageName: "_ZNV11ap_int_baseILi11ELb1EEaSERKS0_", scope: !1451, file: !176, line: 435, type: !1532, isLocal: false, isDefinition: false, scopeLine: 435, flags: DIFlagPrototyped, isOptimized: false)
!1541 = !DISubprogram(name: "operator=", linkageName: "_ZN11ap_int_baseILi11ELb1EEaSERVKS0_", scope: !1451, file: !176, line: 452, type: !1542, isLocal: false, isDefinition: false, scopeLine: 452, flags: DIFlagPrototyped, isOptimized: false)
!1542 = !DISubroutineType(types: !1543)
!1543 = !{!1544, !1474, !1538}
!1544 = !DIDerivedType(tag: DW_TAG_reference_type, baseType: !1451, size: 64)
!1545 = !DISubprogram(name: "operator=", linkageName: "_ZN11ap_int_baseILi11ELb1EEaSERKS0_", scope: !1451, file: !176, line: 457, type: !1546, isLocal: false, isDefinition: false, scopeLine: 457, flags: DIFlagPrototyped, isOptimized: false)
!1546 = !DISubroutineType(types: !1547)
!1547 = !{!1544, !1474, !1534}
!1548 = !DISubprogram(name: "operator=", linkageName: "_ZN11ap_int_baseILi11ELb1EEaSEb", scope: !1451, file: !176, line: 465, type: !1549, isLocal: false, isDefinition: false, scopeLine: 465, flags: DIFlagPrototyped, isOptimized: false)
!1549 = !DISubroutineType(types: !1550)
!1550 = !{!1544, !1474, !43}
!1551 = !DISubprogram(name: "operator=", linkageName: "_ZN11ap_int_baseILi11ELb1EEaSEc", scope: !1451, file: !176, line: 466, type: !1552, isLocal: false, isDefinition: false, scopeLine: 466, flags: DIFlagPrototyped, isOptimized: false)
!1552 = !DISubroutineType(types: !1553)
!1553 = !{!1544, !1474, !89}
!1554 = !DISubprogram(name: "operator=", linkageName: "_ZN11ap_int_baseILi11ELb1EEaSEa", scope: !1451, file: !176, line: 467, type: !1555, isLocal: false, isDefinition: false, scopeLine: 467, flags: DIFlagPrototyped, isOptimized: false)
!1555 = !DISubroutineType(types: !1556)
!1556 = !{!1544, !1474, !93}
!1557 = !DISubprogram(name: "operator=", linkageName: "_ZN11ap_int_baseILi11ELb1EEaSEh", scope: !1451, file: !176, line: 468, type: !1558, isLocal: false, isDefinition: false, scopeLine: 468, flags: DIFlagPrototyped, isOptimized: false)
!1558 = !DISubroutineType(types: !1559)
!1559 = !{!1544, !1474, !109}
!1560 = !DISubprogram(name: "operator=", linkageName: "_ZN11ap_int_baseILi11ELb1EEaSEs", scope: !1451, file: !176, line: 469, type: !1561, isLocal: false, isDefinition: false, scopeLine: 469, flags: DIFlagPrototyped, isOptimized: false)
!1561 = !DISubroutineType(types: !1562)
!1562 = !{!1544, !1474, !35}
!1563 = !DISubprogram(name: "operator=", linkageName: "_ZN11ap_int_baseILi11ELb1EEaSEt", scope: !1451, file: !176, line: 470, type: !1564, isLocal: false, isDefinition: false, scopeLine: 470, flags: DIFlagPrototyped, isOptimized: false)
!1564 = !DISubroutineType(types: !1565)
!1565 = !{!1544, !1474, !118}
!1566 = !DISubprogram(name: "operator=", linkageName: "_ZN11ap_int_baseILi11ELb1EEaSEi", scope: !1451, file: !176, line: 471, type: !1567, isLocal: false, isDefinition: false, scopeLine: 471, flags: DIFlagPrototyped, isOptimized: false)
!1567 = !DISubroutineType(types: !1568)
!1568 = !{!1544, !1474, !17}
!1569 = !DISubprogram(name: "operator=", linkageName: "_ZN11ap_int_baseILi11ELb1EEaSEj", scope: !1451, file: !176, line: 472, type: !1570, isLocal: false, isDefinition: false, scopeLine: 472, flags: DIFlagPrototyped, isOptimized: false)
!1570 = !DISubroutineType(types: !1571)
!1571 = !{!1544, !1474, !126}
!1572 = !DISubprogram(name: "operator=", linkageName: "_ZN11ap_int_baseILi11ELb1EEaSEl", scope: !1451, file: !176, line: 473, type: !1573, isLocal: false, isDefinition: false, scopeLine: 473, flags: DIFlagPrototyped, isOptimized: false)
!1573 = !DISubroutineType(types: !1574)
!1574 = !{!1544, !1474, !131}
!1575 = !DISubprogram(name: "operator=", linkageName: "_ZN11ap_int_baseILi11ELb1EEaSEm", scope: !1451, file: !176, line: 474, type: !1576, isLocal: false, isDefinition: false, scopeLine: 474, flags: DIFlagPrototyped, isOptimized: false)
!1576 = !DISubroutineType(types: !1577)
!1577 = !{!1544, !1474, !136}
!1578 = !DISubprogram(name: "operator=", linkageName: "_ZN11ap_int_baseILi11ELb1EEaSEx", scope: !1451, file: !176, line: 475, type: !1579, isLocal: false, isDefinition: false, scopeLine: 475, flags: DIFlagPrototyped, isOptimized: false)
!1579 = !DISubroutineType(types: !1580)
!1580 = !{!1544, !1474, !234}
!1581 = !DISubprogram(name: "operator=", linkageName: "_ZN11ap_int_baseILi11ELb1EEaSEy", scope: !1451, file: !176, line: 476, type: !1582, isLocal: false, isDefinition: false, scopeLine: 476, flags: DIFlagPrototyped, isOptimized: false)
!1582 = !DISubroutineType(types: !1583)
!1583 = !{!1544, !1474, !240}
!1584 = !DISubprogram(name: "operator long long", linkageName: "_ZNK11ap_int_baseILi11ELb1EEcvxEv", scope: !1451, file: !176, line: 527, type: !1585, isLocal: false, isDefinition: false, scopeLine: 527, flags: DIFlagPrototyped, isOptimized: false)
!1585 = !DISubroutineType(types: !1586)
!1586 = !{!1587, !1469}
!1587 = !DIDerivedType(tag: DW_TAG_typedef, name: "RetType", scope: !1451, file: !176, line: 121, baseType: !320)
!1588 = !DISubprogram(name: "to_bool", linkageName: "_ZNK11ap_int_baseILi11ELb1EE7to_boolEv", scope: !1451, file: !176, line: 532, type: !1589, isLocal: false, isDefinition: false, scopeLine: 532, flags: DIFlagPrototyped, isOptimized: false)
!1589 = !DISubroutineType(types: !1590)
!1590 = !{!43, !1469}
!1591 = !DISubprogram(name: "to_char", linkageName: "_ZNK11ap_int_baseILi11ELb1EE7to_charEv", scope: !1451, file: !176, line: 533, type: !1592, isLocal: false, isDefinition: false, scopeLine: 533, flags: DIFlagPrototyped, isOptimized: false)
!1592 = !DISubroutineType(types: !1593)
!1593 = !{!89, !1469}
!1594 = !DISubprogram(name: "to_schar", linkageName: "_ZNK11ap_int_baseILi11ELb1EE8to_scharEv", scope: !1451, file: !176, line: 534, type: !1595, isLocal: false, isDefinition: false, scopeLine: 534, flags: DIFlagPrototyped, isOptimized: false)
!1595 = !DISubroutineType(types: !1596)
!1596 = !{!93, !1469}
!1597 = !DISubprogram(name: "to_uchar", linkageName: "_ZNK11ap_int_baseILi11ELb1EE8to_ucharEv", scope: !1451, file: !176, line: 535, type: !1598, isLocal: false, isDefinition: false, scopeLine: 535, flags: DIFlagPrototyped, isOptimized: false)
!1598 = !DISubroutineType(types: !1599)
!1599 = !{!109, !1469}
!1600 = !DISubprogram(name: "to_short", linkageName: "_ZNK11ap_int_baseILi11ELb1EE8to_shortEv", scope: !1451, file: !176, line: 536, type: !1601, isLocal: false, isDefinition: false, scopeLine: 536, flags: DIFlagPrototyped, isOptimized: false)
!1601 = !DISubroutineType(types: !1602)
!1602 = !{!35, !1469}
!1603 = !DISubprogram(name: "to_ushort", linkageName: "_ZNK11ap_int_baseILi11ELb1EE9to_ushortEv", scope: !1451, file: !176, line: 537, type: !1604, isLocal: false, isDefinition: false, scopeLine: 537, flags: DIFlagPrototyped, isOptimized: false)
!1604 = !DISubroutineType(types: !1605)
!1605 = !{!118, !1469}
!1606 = !DISubprogram(name: "to_int", linkageName: "_ZNK11ap_int_baseILi11ELb1EE6to_intEv", scope: !1451, file: !176, line: 538, type: !1467, isLocal: false, isDefinition: false, scopeLine: 538, flags: DIFlagPrototyped, isOptimized: false)
!1607 = !DISubprogram(name: "to_uint", linkageName: "_ZNK11ap_int_baseILi11ELb1EE7to_uintEv", scope: !1451, file: !176, line: 539, type: !1608, isLocal: false, isDefinition: false, scopeLine: 539, flags: DIFlagPrototyped, isOptimized: false)
!1608 = !DISubroutineType(types: !1609)
!1609 = !{!126, !1469}
!1610 = !DISubprogram(name: "to_long", linkageName: "_ZNK11ap_int_baseILi11ELb1EE7to_longEv", scope: !1451, file: !176, line: 540, type: !1611, isLocal: false, isDefinition: false, scopeLine: 540, flags: DIFlagPrototyped, isOptimized: false)
!1611 = !DISubroutineType(types: !1612)
!1612 = !{!131, !1469}
!1613 = !DISubprogram(name: "to_ulong", linkageName: "_ZNK11ap_int_baseILi11ELb1EE8to_ulongEv", scope: !1451, file: !176, line: 541, type: !1614, isLocal: false, isDefinition: false, scopeLine: 541, flags: DIFlagPrototyped, isOptimized: false)
!1614 = !DISubroutineType(types: !1615)
!1615 = !{!136, !1469}
!1616 = !DISubprogram(name: "to_int64", linkageName: "_ZNK11ap_int_baseILi11ELb1EE8to_int64Ev", scope: !1451, file: !176, line: 542, type: !1617, isLocal: false, isDefinition: false, scopeLine: 542, flags: DIFlagPrototyped, isOptimized: false)
!1617 = !DISubroutineType(types: !1618)
!1618 = !{!234, !1469}
!1619 = !DISubprogram(name: "to_uint64", linkageName: "_ZNK11ap_int_baseILi11ELb1EE9to_uint64Ev", scope: !1451, file: !176, line: 543, type: !1620, isLocal: false, isDefinition: false, scopeLine: 543, flags: DIFlagPrototyped, isOptimized: false)
!1620 = !DISubroutineType(types: !1621)
!1621 = !{!240, !1469}
!1622 = !DISubprogram(name: "to_half", linkageName: "_ZNK11ap_int_baseILi11ELb1EE7to_halfEv", scope: !1451, file: !176, line: 544, type: !1623, isLocal: false, isDefinition: false, scopeLine: 544, flags: DIFlagPrototyped, isOptimized: false)
!1623 = !DISubroutineType(types: !1624)
!1624 = !{!244, !1469}
!1625 = !DISubprogram(name: "to_float", linkageName: "_ZNK11ap_int_baseILi11ELb1EE8to_floatEv", scope: !1451, file: !176, line: 545, type: !1626, isLocal: false, isDefinition: false, scopeLine: 545, flags: DIFlagPrototyped, isOptimized: false)
!1626 = !DISubroutineType(types: !1627)
!1627 = !{!156, !1469}
!1628 = !DISubprogram(name: "to_double", linkageName: "_ZNK11ap_int_baseILi11ELb1EE9to_doubleEv", scope: !1451, file: !176, line: 546, type: !1629, isLocal: false, isDefinition: false, scopeLine: 546, flags: DIFlagPrototyped, isOptimized: false)
!1629 = !DISubroutineType(types: !1630)
!1630 = !{!152, !1469}
!1631 = !DISubprogram(name: "length", linkageName: "_ZNVK11ap_int_baseILi11ELb1EE6lengthEv", scope: !1451, file: !176, line: 570, type: !1632, isLocal: false, isDefinition: false, scopeLine: 570, flags: DIFlagPrototyped, isOptimized: false)
!1632 = !DISubroutineType(types: !1633)
!1633 = !{!17, !1634}
!1634 = !DIDerivedType(tag: DW_TAG_pointer_type, baseType: !1539, size: 64, flags: DIFlagArtificial | DIFlagObjectPointer)
!1635 = !DISubprogram(name: "iszero", linkageName: "_ZNK11ap_int_baseILi11ELb1EE6iszeroEv", scope: !1451, file: !176, line: 573, type: !1589, isLocal: false, isDefinition: false, scopeLine: 573, flags: DIFlagPrototyped, isOptimized: false)
!1636 = !DISubprogram(name: "is_zero", linkageName: "_ZNK11ap_int_baseILi11ELb1EE7is_zeroEv", scope: !1451, file: !176, line: 576, type: !1589, isLocal: false, isDefinition: false, scopeLine: 576, flags: DIFlagPrototyped, isOptimized: false)
!1637 = !DISubprogram(name: "sign", linkageName: "_ZNK11ap_int_baseILi11ELb1EE4signEv", scope: !1451, file: !176, line: 579, type: !1589, isLocal: false, isDefinition: false, scopeLine: 579, flags: DIFlagPrototyped, isOptimized: false)
!1638 = !DISubprogram(name: "clear", linkageName: "_ZN11ap_int_baseILi11ELb1EE5clearEi", scope: !1451, file: !176, line: 588, type: !1639, isLocal: false, isDefinition: false, scopeLine: 588, flags: DIFlagPrototyped, isOptimized: false)
!1639 = !DISubroutineType(types: !1640)
!1640 = !{null, !1474, !17}
!1641 = !DISubprogram(name: "invert", linkageName: "_ZN11ap_int_baseILi11ELb1EE6invertEi", scope: !1451, file: !176, line: 594, type: !1639, isLocal: false, isDefinition: false, scopeLine: 594, flags: DIFlagPrototyped, isOptimized: false)
!1642 = !DISubprogram(name: "test", linkageName: "_ZNK11ap_int_baseILi11ELb1EE4testEi", scope: !1451, file: !176, line: 603, type: !1643, isLocal: false, isDefinition: false, scopeLine: 603, flags: DIFlagPrototyped, isOptimized: false)
!1643 = !DISubroutineType(types: !1644)
!1644 = !{!43, !1469, !17}
!1645 = !DISubprogram(name: "get", linkageName: "_ZN11ap_int_baseILi11ELb1EE3getEv", scope: !1451, file: !176, line: 609, type: !1646, isLocal: false, isDefinition: false, scopeLine: 609, flags: DIFlagPrototyped, isOptimized: false)
!1646 = !DISubroutineType(types: !1647)
!1647 = !{!1544, !1474}
!1648 = !DISubprogram(name: "set", linkageName: "_ZN11ap_int_baseILi11ELb1EE3setEi", scope: !1451, file: !176, line: 612, type: !1639, isLocal: false, isDefinition: false, scopeLine: 612, flags: DIFlagPrototyped, isOptimized: false)
!1649 = !DISubprogram(name: "set", linkageName: "_ZN11ap_int_baseILi11ELb1EE3setEib", scope: !1451, file: !176, line: 618, type: !1650, isLocal: false, isDefinition: false, scopeLine: 618, flags: DIFlagPrototyped, isOptimized: false)
!1650 = !DISubroutineType(types: !1651)
!1651 = !{null, !1474, !17, !43}
!1652 = !DISubprogram(name: "lrotate", linkageName: "_ZN11ap_int_baseILi11ELb1EE7lrotateEi", scope: !1451, file: !176, line: 625, type: !1567, isLocal: false, isDefinition: false, scopeLine: 625, flags: DIFlagPrototyped, isOptimized: false)
!1653 = !DISubprogram(name: "rrotate", linkageName: "_ZN11ap_int_baseILi11ELb1EE7rrotateEi", scope: !1451, file: !176, line: 640, type: !1567, isLocal: false, isDefinition: false, scopeLine: 640, flags: DIFlagPrototyped, isOptimized: false)
!1654 = !DISubprogram(name: "reverse", linkageName: "_ZN11ap_int_baseILi11ELb1EE7reverseEv", scope: !1451, file: !176, line: 655, type: !1646, isLocal: false, isDefinition: false, scopeLine: 655, flags: DIFlagPrototyped, isOptimized: false)
!1655 = !DISubprogram(name: "set_bit", linkageName: "_ZN11ap_int_baseILi11ELb1EE7set_bitEib", scope: !1451, file: !176, line: 661, type: !1650, isLocal: false, isDefinition: false, scopeLine: 661, flags: DIFlagPrototyped, isOptimized: false)
!1656 = !DISubprogram(name: "get_bit", linkageName: "_ZNK11ap_int_baseILi11ELb1EE7get_bitEi", scope: !1451, file: !176, line: 666, type: !1643, isLocal: false, isDefinition: false, scopeLine: 666, flags: DIFlagPrototyped, isOptimized: false)
!1657 = !DISubprogram(name: "b_not", linkageName: "_ZN11ap_int_baseILi11ELb1EE5b_notEv", scope: !1451, file: !176, line: 671, type: !1472, isLocal: false, isDefinition: false, scopeLine: 671, flags: DIFlagPrototyped, isOptimized: false)
!1658 = !DISubprogram(name: "checkOverflowCsim", linkageName: "_ZNK11ap_int_baseILi11ELb1EE17checkOverflowCsimEibb", scope: !1451, file: !176, line: 745, type: !1659, isLocal: false, isDefinition: false, scopeLine: 745, flags: DIFlagPrototyped, isOptimized: false)
!1659 = !DISubroutineType(types: !1660)
!1660 = !{!43, !1469, !17, !43, !43}
!1661 = !DISubprogram(name: "operator++", linkageName: "_ZN11ap_int_baseILi11ELb1EEppEv", scope: !1451, file: !176, line: 849, type: !1646, isLocal: false, isDefinition: false, scopeLine: 849, flags: DIFlagPrototyped, isOptimized: false)
!1662 = !DISubprogram(name: "operator--", linkageName: "_ZN11ap_int_baseILi11ELb1EEmmEv", scope: !1451, file: !176, line: 853, type: !1646, isLocal: false, isDefinition: false, scopeLine: 853, flags: DIFlagPrototyped, isOptimized: false)
!1663 = !DISubprogram(name: "operator++", linkageName: "_ZN11ap_int_baseILi11ELb1EEppEi", scope: !1451, file: !176, line: 861, type: !1664, isLocal: false, isDefinition: false, scopeLine: 861, flags: DIFlagPrototyped, isOptimized: false)
!1664 = !DISubroutineType(types: !1665)
!1665 = !{!1666, !1474, !17}
!1666 = !DIDerivedType(tag: DW_TAG_const_type, baseType: !1667)
!1667 = !DIDerivedType(tag: DW_TAG_typedef, name: "arg1", scope: !1668, file: !176, line: 160, baseType: !1444)
!1668 = distinct !DICompositeType(tag: DW_TAG_structure_type, name: "RType<11, true>", scope: !1451, file: !176, line: 127, size: 8, flags: DIFlagTypePassByValue, elements: !4, templateParams: !1446, identifier: "_ZTSN11ap_int_baseILi11ELb1EE5RTypeILi11ELb1EEE")
!1669 = !DISubprogram(name: "operator--", linkageName: "_ZN11ap_int_baseILi11ELb1EEmmEi", scope: !1451, file: !176, line: 866, type: !1664, isLocal: false, isDefinition: false, scopeLine: 866, flags: DIFlagPrototyped, isOptimized: false)
!1670 = !DISubprogram(name: "operator+", linkageName: "_ZNK11ap_int_baseILi11ELb1EEpsEv", scope: !1451, file: !176, line: 875, type: !1671, isLocal: false, isDefinition: false, scopeLine: 875, flags: DIFlagPrototyped, isOptimized: false)
!1671 = !DISubroutineType(types: !1672)
!1672 = !{!1667, !1469}
!1673 = !DISubprogram(name: "operator-", linkageName: "_ZNK11ap_int_baseILi11ELb1EEngEv", scope: !1451, file: !176, line: 878, type: !1674, isLocal: false, isDefinition: false, scopeLine: 878, flags: DIFlagPrototyped, isOptimized: false)
!1674 = !DISubroutineType(types: !1675)
!1675 = !{!1676, !1469}
!1676 = !DIDerivedType(tag: DW_TAG_typedef, name: "minus", scope: !1677, file: !176, line: 156, baseType: !1678)
!1677 = distinct !DICompositeType(tag: DW_TAG_structure_type, name: "RType<1, false>", scope: !1451, file: !176, line: 127, size: 8, flags: DIFlagTypePassByValue, elements: !4, templateParams: !504, identifier: "_ZTSN11ap_int_baseILi11ELb1EE5RTypeILi1ELb0EEE")
!1678 = !DIDerivedType(tag: DW_TAG_typedef, name: "type", scope: !1679, file: !176, line: 96, baseType: !1682)
!1679 = distinct !DICompositeType(tag: DW_TAG_structure_type, name: "_ap_int_factory<12, true>", file: !322, line: 142, size: 8, flags: DIFlagTypePassByValue, elements: !4, templateParams: !1680, identifier: "_ZTS15_ap_int_factoryILi12ELb1EE")
!1680 = !{!1681, !408}
!1681 = !DITemplateValueParameter(name: "_AP_W2", type: !17, value: i32 12)
!1682 = distinct !DICompositeType(tag: DW_TAG_structure_type, name: "ap_int<12>", file: !412, line: 17, size: 16, flags: DIFlagTypePassByValue, elements: !1683, templateParams: !2953, identifier: "_ZTS6ap_intILi12EE")
!1683 = !{!1684, !3317, !3321, !3324, !3327, !3330, !3333, !3336, !3339, !3342, !3345, !3348, !3351, !3354, !3357, !3360, !3363, !3366, !3369, !3372, !3375, !3381, !3387, !3391}
!1684 = !DIDerivedType(tag: DW_TAG_inheritance, scope: !1682, baseType: !1685)
!1685 = distinct !DICompositeType(tag: DW_TAG_structure_type, name: "ap_int_base<12, true>", file: !322, line: 147, size: 16, flags: DIFlagTypePassByValue, elements: !1686, templateParams: !3288, identifier: "_ZTS11ap_int_baseILi12ELb1EE")
!1686 = !{!1687, !1698, !1699, !1700, !1705, !1709, !1712, !1715, !1718, !1721, !1724, !1727, !1730, !1733, !1736, !1739, !1742, !1745, !1748, !1751, !1754, !1757, !1760, !1765, !1769, !1774, !1775, !1779, !1782, !1785, !1788, !1791, !1794, !1797, !1800, !1803, !1806, !1809, !1812, !1815, !1818, !1822, !1825, !1828, !1831, !1834, !1837, !1840, !1841, !1844, !1847, !1850, !1853, !1856, !1859, !1862, !1865, !1869, !1870, !1871, !1872, !1875, !1876, !1879, !1882, !1883, !1886, !1887, !1888, !1889, !1890, !1891, !1892, !1895, !1896, !1897, !1904, !1905, !1908, !2618, !2619, !2620, !3289, !3292, !3295, !3298, !3299, !3300, !3304, !3305, !3306, !3307, !3308, !3309, !3310, !3311, !3312, !3313, !3314}
!1687 = !DIDerivedType(tag: DW_TAG_inheritance, scope: !1685, baseType: !1688)
!1688 = distinct !DICompositeType(tag: DW_TAG_structure_type, name: "ssdm_int<12, true>", file: !32, line: 512, size: 16, flags: DIFlagTypePassByValue, elements: !1689, templateParams: !1696, identifier: "_ZTS8ssdm_intILi12ELb1EE")
!1689 = !{!1690, !1692}
!1690 = !DIDerivedType(tag: DW_TAG_member, name: "V", scope: !1688, file: !32, line: 513, baseType: !1691, size: 12, align: 16)
!1691 = !DIBasicType(name: "int12", size: 12, encoding: DW_ATE_signed)
!1692 = !DISubprogram(name: "ssdm_int", scope: !1688, file: !32, line: 514, type: !1693, isLocal: false, isDefinition: false, scopeLine: 514, flags: DIFlagPrototyped, isOptimized: false)
!1693 = !DISubroutineType(types: !1694)
!1694 = !{null, !1695}
!1695 = !DIDerivedType(tag: DW_TAG_pointer_type, baseType: !1688, size: 64, flags: DIFlagArtificial | DIFlagObjectPointer)
!1696 = !{!1697, !42}
!1697 = !DITemplateValueParameter(name: "_AP_N", type: !17, value: i32 12)
!1698 = !DIDerivedType(tag: DW_TAG_member, name: "width", scope: !1685, file: !322, line: 169, baseType: !45, flags: DIFlagStaticMember, extraData: i32 12)
!1699 = !DIDerivedType(tag: DW_TAG_member, name: "sign_flag", scope: !1685, file: !322, line: 170, baseType: !97, flags: DIFlagStaticMember, extraData: i1 true)
!1700 = !DISubprogram(name: "countLeadingOnes", linkageName: "_ZNK11ap_int_baseILi12ELb1EE16countLeadingOnesEv", scope: !1685, file: !322, line: 149, type: !1701, isLocal: false, isDefinition: false, scopeLine: 149, flags: DIFlagPrivate | DIFlagPrototyped, isOptimized: false)
!1701 = !DISubroutineType(types: !1702)
!1702 = !{!17, !1703}
!1703 = !DIDerivedType(tag: DW_TAG_pointer_type, baseType: !1704, size: 64, flags: DIFlagArtificial | DIFlagObjectPointer)
!1704 = !DIDerivedType(tag: DW_TAG_const_type, baseType: !1685)
!1705 = !DISubprogram(name: "ap_int_base", scope: !1685, file: !322, line: 214, type: !1706, isLocal: false, isDefinition: false, scopeLine: 214, flags: DIFlagPrototyped, isOptimized: false)
!1706 = !DISubroutineType(types: !1707)
!1707 = !{null, !1708}
!1708 = !DIDerivedType(tag: DW_TAG_pointer_type, baseType: !1685, size: 64, flags: DIFlagArtificial | DIFlagObjectPointer)
!1709 = !DISubprogram(name: "ap_int_base", scope: !1685, file: !322, line: 247, type: !1710, isLocal: false, isDefinition: false, scopeLine: 247, flags: DIFlagPrototyped, isOptimized: false)
!1710 = !DISubroutineType(types: !1711)
!1711 = !{null, !1708, !97}
!1712 = !DISubprogram(name: "ap_int_base", scope: !1685, file: !322, line: 248, type: !1713, isLocal: false, isDefinition: false, scopeLine: 248, flags: DIFlagPrototyped, isOptimized: false)
!1713 = !DISubroutineType(types: !1714)
!1714 = !{null, !1708, !88}
!1715 = !DISubprogram(name: "ap_int_base", scope: !1685, file: !322, line: 249, type: !1716, isLocal: false, isDefinition: false, scopeLine: 249, flags: DIFlagPrototyped, isOptimized: false)
!1716 = !DISubroutineType(types: !1717)
!1717 = !{null, !1708, !104}
!1718 = !DISubprogram(name: "ap_int_base", scope: !1685, file: !322, line: 250, type: !1719, isLocal: false, isDefinition: false, scopeLine: 250, flags: DIFlagPrototyped, isOptimized: false)
!1719 = !DISubroutineType(types: !1720)
!1720 = !{null, !1708, !108}
!1721 = !DISubprogram(name: "ap_int_base", scope: !1685, file: !322, line: 251, type: !1722, isLocal: false, isDefinition: false, scopeLine: 251, flags: DIFlagPrototyped, isOptimized: false)
!1722 = !DISubroutineType(types: !1723)
!1723 = !{null, !1708, !113}
!1724 = !DISubprogram(name: "ap_int_base", scope: !1685, file: !322, line: 252, type: !1725, isLocal: false, isDefinition: false, scopeLine: 252, flags: DIFlagPrototyped, isOptimized: false)
!1725 = !DISubroutineType(types: !1726)
!1726 = !{null, !1708, !117}
!1727 = !DISubprogram(name: "ap_int_base", scope: !1685, file: !322, line: 253, type: !1728, isLocal: false, isDefinition: false, scopeLine: 253, flags: DIFlagPrototyped, isOptimized: false)
!1728 = !DISubroutineType(types: !1729)
!1729 = !{null, !1708, !45}
!1730 = !DISubprogram(name: "ap_int_base", scope: !1685, file: !322, line: 254, type: !1731, isLocal: false, isDefinition: false, scopeLine: 254, flags: DIFlagPrototyped, isOptimized: false)
!1731 = !DISubroutineType(types: !1732)
!1732 = !{null, !1708, !125}
!1733 = !DISubprogram(name: "ap_int_base", scope: !1685, file: !322, line: 255, type: !1734, isLocal: false, isDefinition: false, scopeLine: 255, flags: DIFlagPrototyped, isOptimized: false)
!1734 = !DISubroutineType(types: !1735)
!1735 = !{null, !1708, !130}
!1736 = !DISubprogram(name: "ap_int_base", scope: !1685, file: !322, line: 256, type: !1737, isLocal: false, isDefinition: false, scopeLine: 256, flags: DIFlagPrototyped, isOptimized: false)
!1737 = !DISubroutineType(types: !1738)
!1738 = !{null, !1708, !135}
!1739 = !DISubprogram(name: "ap_int_base", scope: !1685, file: !322, line: 257, type: !1740, isLocal: false, isDefinition: false, scopeLine: 257, flags: DIFlagPrototyped, isOptimized: false)
!1740 = !DISubroutineType(types: !1741)
!1741 = !{null, !1708, !140}
!1742 = !DISubprogram(name: "ap_int_base", scope: !1685, file: !322, line: 258, type: !1743, isLocal: false, isDefinition: false, scopeLine: 258, flags: DIFlagPrototyped, isOptimized: false)
!1743 = !DISubroutineType(types: !1744)
!1744 = !{null, !1708, !146}
!1745 = !DISubprogram(name: "ap_int_base", scope: !1685, file: !322, line: 263, type: !1746, isLocal: false, isDefinition: false, scopeLine: 263, flags: DIFlagPrototyped, isOptimized: false)
!1746 = !DISubroutineType(types: !1747)
!1747 = !{null, !1708, !160}
!1748 = !DISubprogram(name: "ap_int_base", scope: !1685, file: !322, line: 269, type: !1749, isLocal: false, isDefinition: false, scopeLine: 269, flags: DIFlagPrototyped, isOptimized: false)
!1749 = !DISubroutineType(types: !1750)
!1750 = !{null, !1708, !156}
!1751 = !DISubprogram(name: "ap_int_base", scope: !1685, file: !322, line: 328, type: !1752, isLocal: false, isDefinition: false, scopeLine: 328, flags: DIFlagPrototyped, isOptimized: false)
!1752 = !DISubroutineType(types: !1753)
!1753 = !{null, !1708, !152}
